Archive member included to satisfy reference by file (symbol)

c:/devkitpro/devkitppc/bin/../lib/gcc/powerpc-eabi/12.1.0/../../../../powerpc-eabi/lib\libstdc++.a(del_ops.o)
                              Main.o (_ZdlPvj)
c:/devkitpro/devkitppc/bin/../lib/gcc/powerpc-eabi/12.1.0/../../../../powerpc-eabi/lib\libstdc++.a(eh_aux_runtime.o)
                              Main.o (__cxa_throw_bad_array_new_length)
c:/devkitpro/devkitppc/bin/../lib/gcc/powerpc-eabi/12.1.0/../../../../powerpc-eabi/lib\libstdc++.a(eh_personality.o)
                              Main.o (__gxx_personality_v0)
c:/devkitpro/devkitppc/bin/../lib/gcc/powerpc-eabi/12.1.0/../../../../powerpc-eabi/lib\libstdc++.a(eh_terminate.o)
                              c:/devkitpro/devkitppc/bin/../lib/gcc/powerpc-eabi/12.1.0/../../../../powerpc-eabi/lib\libstdc++.a(eh_personality.o) (_ZN10__cxxabiv111__terminateEPFvvE)
c:/devkitpro/devkitppc/bin/../lib/gcc/powerpc-eabi/12.1.0/../../../../powerpc-eabi/lib\libstdc++.a(eh_throw.o)
                              c:/devkitpro/devkitppc/bin/../lib/gcc/powerpc-eabi/12.1.0/../../../../powerpc-eabi/lib\libstdc++.a(eh_aux_runtime.o) (__cxa_throw)
c:/devkitpro/devkitppc/bin/../lib/gcc/powerpc-eabi/12.1.0/../../../../powerpc-eabi/lib\libstdc++.a(eh_unex_handler.o)
                              c:/devkitpro/devkitppc/bin/../lib/gcc/powerpc-eabi/12.1.0/../../../../powerpc-eabi/lib\libstdc++.a(eh_terminate.o) (_ZN10__cxxabiv120__unexpected_handlerE)
c:/devkitpro/devkitppc/bin/../lib/gcc/powerpc-eabi/12.1.0/../../../../powerpc-eabi/lib\libstdc++.a(guard.o)
                              Main.o (__cxa_guard_acquire)
c:/devkitpro/devkitppc/bin/../lib/gcc/powerpc-eabi/12.1.0/../../../../powerpc-eabi/lib\libstdc++.a(guard_error.o)
                              c:/devkitpro/devkitppc/bin/../lib/gcc/powerpc-eabi/12.1.0/../../../../powerpc-eabi/lib\libstdc++.a(guard.o) (_ZN9__gnu_cxx20recursive_init_errorD1Ev)
c:/devkitpro/devkitppc/bin/../lib/gcc/powerpc-eabi/12.1.0/../../../../powerpc-eabi/lib\libstdc++.a(si_class_type_info.o)
                              c:/devkitpro/devkitppc/bin/../lib/gcc/powerpc-eabi/12.1.0/../../../../powerpc-eabi/lib\libstdc++.a(guard.o) (_ZTVN10__cxxabiv120__si_class_type_infoE)
c:/devkitpro/devkitppc/bin/../lib/gcc/powerpc-eabi/12.1.0/../../../../powerpc-eabi/lib\libstdc++.a(tinfo.o)
                              c:/devkitpro/devkitppc/bin/../lib/gcc/powerpc-eabi/12.1.0/../../../../powerpc-eabi/lib\libstdc++.a(si_class_type_info.o) (_ZNKSt9type_info14__is_pointer_pEv)
c:/devkitpro/devkitppc/bin/../lib/gcc/powerpc-eabi/12.1.0/../../../../powerpc-eabi/lib\libstdc++.a(bad_array_new.o)
                              c:/devkitpro/devkitppc/bin/../lib/gcc/powerpc-eabi/12.1.0/../../../../powerpc-eabi/lib\libstdc++.a(eh_aux_runtime.o) (_ZTVSt20bad_array_new_length)
c:/devkitpro/devkitppc/bin/../lib/gcc/powerpc-eabi/12.1.0/../../../../powerpc-eabi/lib\libstdc++.a(bad_cast.o)
                              c:/devkitpro/devkitppc/bin/../lib/gcc/powerpc-eabi/12.1.0/../../../../powerpc-eabi/lib\libstdc++.a(eh_aux_runtime.o) (_ZTVSt8bad_cast)
c:/devkitpro/devkitppc/bin/../lib/gcc/powerpc-eabi/12.1.0/../../../../powerpc-eabi/lib\libstdc++.a(bad_typeid.o)
                              c:/devkitpro/devkitppc/bin/../lib/gcc/powerpc-eabi/12.1.0/../../../../powerpc-eabi/lib\libstdc++.a(eh_aux_runtime.o) (_ZTVSt10bad_typeid)
c:/devkitpro/devkitppc/bin/../lib/gcc/powerpc-eabi/12.1.0/../../../../powerpc-eabi/lib\libstdc++.a(class_type_info.o)
                              c:/devkitpro/devkitppc/bin/../lib/gcc/powerpc-eabi/12.1.0/../../../../powerpc-eabi/lib\libstdc++.a(si_class_type_info.o) (_ZNK10__cxxabiv117__class_type_info11__do_upcastEPKS0_PPv)
c:/devkitpro/devkitppc/bin/../lib/gcc/powerpc-eabi/12.1.0/../../../../powerpc-eabi/lib\libstdc++.a(eh_alloc.o)
                              c:/devkitpro/devkitppc/bin/../lib/gcc/powerpc-eabi/12.1.0/../../../../powerpc-eabi/lib\libstdc++.a(eh_aux_runtime.o) (__cxa_allocate_exception)
c:/devkitpro/devkitppc/bin/../lib/gcc/powerpc-eabi/12.1.0/../../../../powerpc-eabi/lib\libstdc++.a(eh_call.o)
                              c:/devkitpro/devkitppc/bin/../lib/gcc/powerpc-eabi/12.1.0/../../../../powerpc-eabi/lib\libstdc++.a(eh_personality.o) (__cxa_call_terminate)
c:/devkitpro/devkitppc/bin/../lib/gcc/powerpc-eabi/12.1.0/../../../../powerpc-eabi/lib\libstdc++.a(eh_catch.o)
                              c:/devkitpro/devkitppc/bin/../lib/gcc/powerpc-eabi/12.1.0/../../../../powerpc-eabi/lib\libstdc++.a(eh_personality.o) (__cxa_begin_catch)
c:/devkitpro/devkitppc/bin/../lib/gcc/powerpc-eabi/12.1.0/../../../../powerpc-eabi/lib\libstdc++.a(eh_exception.o)
                              c:/devkitpro/devkitppc/bin/../lib/gcc/powerpc-eabi/12.1.0/../../../../powerpc-eabi/lib\libstdc++.a(guard.o) (_ZNSt9exceptionD2Ev)
c:/devkitpro/devkitppc/bin/../lib/gcc/powerpc-eabi/12.1.0/../../../../powerpc-eabi/lib\libstdc++.a(eh_globals.o)
                              c:/devkitpro/devkitppc/bin/../lib/gcc/powerpc-eabi/12.1.0/../../../../powerpc-eabi/lib\libstdc++.a(eh_personality.o) (__cxa_get_globals_fast)
c:/devkitpro/devkitppc/bin/../lib/gcc/powerpc-eabi/12.1.0/../../../../powerpc-eabi/lib\libstdc++.a(eh_term_handler.o)
                              c:/devkitpro/devkitppc/bin/../lib/gcc/powerpc-eabi/12.1.0/../../../../powerpc-eabi/lib\libstdc++.a(eh_terminate.o) (_ZN10__cxxabiv119__terminate_handlerE)
c:/devkitpro/devkitppc/bin/../lib/gcc/powerpc-eabi/12.1.0/../../../../powerpc-eabi/lib\libstdc++.a(bad_alloc.o)
                              c:/devkitpro/devkitppc/bin/../lib/gcc/powerpc-eabi/12.1.0/../../../../powerpc-eabi/lib\libstdc++.a(bad_array_new.o) (_ZNSt9bad_allocD2Ev)
c:/devkitpro/devkitppc/bin/../lib/gcc/powerpc-eabi/12.1.0/../../../../powerpc-eabi/lib\libm.a(lib_a-w_atan2.o)
                              Main.o (atan2)
c:/devkitpro/devkitppc/bin/../lib/gcc/powerpc-eabi/12.1.0/../../../../powerpc-eabi/lib\libm.a(lib_a-wf_sincos.o)
                              Main.o (sincosf)
c:/devkitpro/devkitppc/bin/../lib/gcc/powerpc-eabi/12.1.0/../../../../powerpc-eabi/lib\libm.a(lib_a-wf_sqrt.o)
                              Main.o (sqrtf)
c:/devkitpro/devkitppc/bin/../lib/gcc/powerpc-eabi/12.1.0/../../../../powerpc-eabi/lib\libm.a(lib_a-w_sqrt.o)
                              Main.o (sqrt)
c:/devkitpro/devkitppc/bin/../lib/gcc/powerpc-eabi/12.1.0/../../../../powerpc-eabi/lib\libm.a(lib_a-e_atan2.o)
                              c:/devkitpro/devkitppc/bin/../lib/gcc/powerpc-eabi/12.1.0/../../../../powerpc-eabi/lib\libm.a(lib_a-w_atan2.o) (__ieee754_atan2)
c:/devkitpro/devkitppc/bin/../lib/gcc/powerpc-eabi/12.1.0/../../../../powerpc-eabi/lib\libm.a(lib_a-ef_sqrt.o)
                              c:/devkitpro/devkitppc/bin/../lib/gcc/powerpc-eabi/12.1.0/../../../../powerpc-eabi/lib\libm.a(lib_a-wf_sqrt.o) (__ieee754_sqrtf)
c:/devkitpro/devkitppc/bin/../lib/gcc/powerpc-eabi/12.1.0/../../../../powerpc-eabi/lib\libm.a(lib_a-e_sqrt.o)
                              c:/devkitpro/devkitppc/bin/../lib/gcc/powerpc-eabi/12.1.0/../../../../powerpc-eabi/lib\libm.a(lib_a-w_sqrt.o) (__ieee754_sqrt)
c:/devkitpro/devkitppc/bin/../lib/gcc/powerpc-eabi/12.1.0/../../../../powerpc-eabi/lib\libm.a(lib_a-s_atan.o)
                              c:/devkitpro/devkitppc/bin/../lib/gcc/powerpc-eabi/12.1.0/../../../../powerpc-eabi/lib\libm.a(lib_a-e_atan2.o) (atan)
c:/devkitpro/devkitppc/bin/../lib/gcc/powerpc-eabi/12.1.0/../../../../powerpc-eabi/lib\libm.a(lib_a-s_fabs.o)
                              c:/devkitpro/devkitppc/bin/../lib/gcc/powerpc-eabi/12.1.0/../../../../powerpc-eabi/lib\libm.a(lib_a-e_atan2.o) (fabs)
c:/devkitpro/devkitppc/bin/../lib/gcc/powerpc-eabi/12.1.0/../../../../powerpc-eabi/lib\libm.a(lib_a-sf_cos.o)
                              c:/devkitpro/devkitppc/bin/../lib/gcc/powerpc-eabi/12.1.0/../../../../powerpc-eabi/lib\libm.a(lib_a-wf_sincos.o) (cosf)
c:/devkitpro/devkitppc/bin/../lib/gcc/powerpc-eabi/12.1.0/../../../../powerpc-eabi/lib\libm.a(lib_a-sf_sin.o)
                              c:/devkitpro/devkitppc/bin/../lib/gcc/powerpc-eabi/12.1.0/../../../../powerpc-eabi/lib\libm.a(lib_a-wf_sincos.o) (sinf)
c:/devkitpro/devkitppc/bin/../lib/gcc/powerpc-eabi/12.1.0/../../../../powerpc-eabi/lib\libm.a(lib_a-ef_rem_pio2.o)
                              c:/devkitpro/devkitppc/bin/../lib/gcc/powerpc-eabi/12.1.0/../../../../powerpc-eabi/lib\libm.a(lib_a-sf_cos.o) (__ieee754_rem_pio2f)
c:/devkitpro/devkitppc/bin/../lib/gcc/powerpc-eabi/12.1.0/../../../../powerpc-eabi/lib\libm.a(lib_a-kf_cos.o)
                              c:/devkitpro/devkitppc/bin/../lib/gcc/powerpc-eabi/12.1.0/../../../../powerpc-eabi/lib\libm.a(lib_a-sf_cos.o) (__kernel_cosf)
c:/devkitpro/devkitppc/bin/../lib/gcc/powerpc-eabi/12.1.0/../../../../powerpc-eabi/lib\libm.a(lib_a-kf_rem_pio2.o)
                              c:/devkitpro/devkitppc/bin/../lib/gcc/powerpc-eabi/12.1.0/../../../../powerpc-eabi/lib\libm.a(lib_a-ef_rem_pio2.o) (__kernel_rem_pio2f)
c:/devkitpro/devkitppc/bin/../lib/gcc/powerpc-eabi/12.1.0/../../../../powerpc-eabi/lib\libm.a(lib_a-kf_sin.o)
                              c:/devkitpro/devkitppc/bin/../lib/gcc/powerpc-eabi/12.1.0/../../../../powerpc-eabi/lib\libm.a(lib_a-sf_cos.o) (__kernel_sinf)
c:/devkitpro/devkitppc/bin/../lib/gcc/powerpc-eabi/12.1.0/../../../../powerpc-eabi/lib\libm.a(lib_a-sf_fabs.o)
                              c:/devkitpro/devkitppc/bin/../lib/gcc/powerpc-eabi/12.1.0/../../../../powerpc-eabi/lib\libm.a(lib_a-ef_rem_pio2.o) (fabsf)
c:/devkitpro/devkitppc/bin/../lib/gcc/powerpc-eabi/12.1.0/../../../../powerpc-eabi/lib\libm.a(lib_a-sf_floor.o)
                              c:/devkitpro/devkitppc/bin/../lib/gcc/powerpc-eabi/12.1.0/../../../../powerpc-eabi/lib\libm.a(lib_a-kf_rem_pio2.o) (floorf)
c:/devkitpro/devkitppc/bin/../lib/gcc/powerpc-eabi/12.1.0/../../../../powerpc-eabi/lib\libm.a(lib_a-sf_scalbn.o)
                              c:/devkitpro/devkitppc/bin/../lib/gcc/powerpc-eabi/12.1.0/../../../../powerpc-eabi/lib\libm.a(lib_a-kf_rem_pio2.o) (scalbnf)
c:/devkitpro/devkitppc/bin/../lib/gcc/powerpc-eabi/12.1.0\libgcc.a(gthr-dkp.o)
                              c:/devkitpro/devkitppc/bin/../lib/gcc/powerpc-eabi/12.1.0/../../../../powerpc-eabi/lib\libstdc++.a(guard.o) (__gthread_active_p)
c:/devkitpro/devkitppc/bin/../lib/gcc/powerpc-eabi/12.1.0\libgcc.a(crtsavfpr.o)
                              Main.o (_savefpr_14)
c:/devkitpro/devkitppc/bin/../lib/gcc/powerpc-eabi/12.1.0\libgcc.a(crtresxfpr.o)
                              Main.o (_restfpr_21_x)
c:/devkitpro/devkitppc/bin/../lib/gcc/powerpc-eabi/12.1.0\libgcc.a(crtresxgpr.o)
                              Main.o (_restgpr_17_x)
c:/devkitpro/devkitppc/bin/../lib/gcc/powerpc-eabi/12.1.0\libgcc.a(unwind-dw2.o)
                              c:/devkitpro/devkitppc/bin/../lib/gcc/powerpc-eabi/12.1.0/../../../../powerpc-eabi/lib\libstdc++.a(eh_personality.o) (_Unwind_SetGR)
c:/devkitpro/devkitppc/bin/../lib/gcc/powerpc-eabi/12.1.0\libgcc.a(unwind-dw2-fde.o)
                              c:/devkitpro/devkitppc/bin/../lib/gcc/powerpc-eabi/12.1.0\libgcc.a(unwind-dw2.o) (_Unwind_Find_FDE)
c:/devkitpro/devkitppc/bin/../lib/gcc/powerpc-eabi/12.1.0/../../../../powerpc-eabi/lib\libsysbase.a(abort.o)
                              c:/devkitpro/devkitppc/bin/../lib/gcc/powerpc-eabi/12.1.0/../../../../powerpc-eabi/lib\libstdc++.a(eh_personality.o) (abort)
c:/devkitpro/devkitppc/bin/../lib/gcc/powerpc-eabi/12.1.0/../../../../powerpc-eabi/lib\libsysbase.a(_exit.o)
                              c:/devkitpro/devkitppc/bin/../lib/gcc/powerpc-eabi/12.1.0/../../../../powerpc-eabi/lib\libsysbase.a(abort.o) (_exit)
c:/devkitpro/devkitppc/bin/../lib/gcc/powerpc-eabi/12.1.0/../../../../powerpc-eabi/lib\libc.a(lib_a-errno.o)
                              c:/devkitpro/devkitppc/bin/../lib/gcc/powerpc-eabi/12.1.0/../../../../powerpc-eabi/lib\libm.a(lib_a-wf_sqrt.o) (__errno)
c:/devkitpro/devkitppc/bin/../lib/gcc/powerpc-eabi/12.1.0/../../../../powerpc-eabi/lib\libc.a(lib_a-impure.o)
                              c:/devkitpro/devkitppc/bin/../lib/gcc/powerpc-eabi/12.1.0/../../../../powerpc-eabi/lib\libc.a(lib_a-errno.o) (_impure_ptr)
c:/devkitpro/devkitppc/bin/../lib/gcc/powerpc-eabi/12.1.0/../../../../powerpc-eabi/lib\libc.a(lib_a-malloc.o)
                              c:/devkitpro/devkitppc/bin/../lib/gcc/powerpc-eabi/12.1.0/../../../../powerpc-eabi/lib\libstdc++.a(eh_alloc.o) (malloc)
c:/devkitpro/devkitppc/bin/../lib/gcc/powerpc-eabi/12.1.0/../../../../powerpc-eabi/lib\libc.a(lib_a-mallocr.o)
                              c:/devkitpro/devkitppc/bin/../lib/gcc/powerpc-eabi/12.1.0/../../../../powerpc-eabi/lib\libc.a(lib_a-malloc.o) (_malloc_r)
c:/devkitpro/devkitppc/bin/../lib/gcc/powerpc-eabi/12.1.0/../../../../powerpc-eabi/lib\libc.a(lib_a-memcpy.o)
                              Main.o (memcpy)
c:/devkitpro/devkitppc/bin/../lib/gcc/powerpc-eabi/12.1.0/../../../../powerpc-eabi/lib\libc.a(lib_a-memset.o)
                              Main.o (memset)
c:/devkitpro/devkitppc/bin/../lib/gcc/powerpc-eabi/12.1.0/../../../../powerpc-eabi/lib\libc.a(lib_a-strcmp.o)
                              c:/devkitpro/devkitppc/bin/../lib/gcc/powerpc-eabi/12.1.0/../../../../powerpc-eabi/lib\libstdc++.a(si_class_type_info.o) (strcmp)
c:/devkitpro/devkitppc/bin/../lib/gcc/powerpc-eabi/12.1.0/../../../../powerpc-eabi/lib\libc.a(lib_a-strlen.o)
                              c:/devkitpro/devkitppc/bin/../lib/gcc/powerpc-eabi/12.1.0\libgcc.a(unwind-dw2.o) (strlen)
c:/devkitpro/devkitppc/bin/../lib/gcc/powerpc-eabi/12.1.0/../../../../powerpc-eabi/lib\libc.a(lib_a-syswrite.o)
                              c:/devkitpro/devkitppc/bin/../lib/gcc/powerpc-eabi/12.1.0/../../../../powerpc-eabi/lib\libsysbase.a(abort.o) (write)
c:/devkitpro/devkitppc/bin/../lib/gcc/powerpc-eabi/12.1.0/../../../../powerpc-eabi/lib\libc.a(lib_a-freer.o)
                              c:/devkitpro/devkitppc/bin/../lib/gcc/powerpc-eabi/12.1.0/../../../../powerpc-eabi/lib\libc.a(lib_a-malloc.o) (_free_r)
c:/devkitpro/devkitppc/bin/../lib/gcc/powerpc-eabi/12.1.0/../../../../powerpc-eabi/lib\libsysbase.a(sbrk.o)
                              c:/devkitpro/devkitppc/bin/../lib/gcc/powerpc-eabi/12.1.0/../../../../powerpc-eabi/lib\libc.a(lib_a-mallocr.o) (_sbrk_r)
c:/devkitpro/devkitppc/bin/../lib/gcc/powerpc-eabi/12.1.0/../../../../powerpc-eabi/lib\libsysbase.a(write.o)
                              c:/devkitpro/devkitppc/bin/../lib/gcc/powerpc-eabi/12.1.0/../../../../powerpc-eabi/lib\libc.a(lib_a-syswrite.o) (_write_r)
c:/devkitpro/devkitppc/bin/../lib/gcc/powerpc-eabi/12.1.0/../../../../powerpc-eabi/lib\libsysbase.a(handle_manager.o)
                              c:/devkitpro/devkitppc/bin/../lib/gcc/powerpc-eabi/12.1.0/../../../../powerpc-eabi/lib\libsysbase.a(write.o) (__get_handle)
c:/devkitpro/devkitppc/bin/../lib/gcc/powerpc-eabi/12.1.0/../../../../powerpc-eabi/lib\libsysbase.a(syscall_support.o)
                              c:/devkitpro/devkitppc/bin/../lib/gcc/powerpc-eabi/12.1.0/../../../../powerpc-eabi/lib\libsysbase.a(handle_manager.o) (__libc_lock_init)
c:/devkitpro/devkitppc/bin/../lib/gcc/powerpc-eabi/12.1.0/../../../../powerpc-eabi/lib\libsysbase.a(iosupport.o)
                              c:/devkitpro/devkitppc/bin/../lib/gcc/powerpc-eabi/12.1.0/../../../../powerpc-eabi/lib\libsysbase.a(write.o) (devoptab_list)
c:/devkitpro/devkitppc/bin/../lib/gcc/powerpc-eabi/12.1.0/../../../../powerpc-eabi/lib\libc.a(lib_a-ctype_.o)
                              c:/devkitpro/devkitppc/bin/../lib/gcc/powerpc-eabi/12.1.0/../../../../powerpc-eabi/lib\libsysbase.a(iosupport.o) (_ctype_)
c:/devkitpro/devkitppc/bin/../lib/gcc/powerpc-eabi/12.1.0/../../../../powerpc-eabi/lib\libc.a(lib_a-strchr.o)
                              c:/devkitpro/devkitppc/bin/../lib/gcc/powerpc-eabi/12.1.0/../../../../powerpc-eabi/lib\libsysbase.a(iosupport.o) (strchr)
c:/devkitpro/devkitppc/bin/../lib/gcc/powerpc-eabi/12.1.0/../../../../powerpc-eabi/lib\libc.a(lib_a-strncmp.o)
                              c:/devkitpro/devkitppc/bin/../lib/gcc/powerpc-eabi/12.1.0/../../../../powerpc-eabi/lib\libsysbase.a(iosupport.o) (strncmp)

Discarded input sections

 .group         0x0000000000000000        0x8 Main.o
 .group         0x0000000000000000       0x18 Main.o
 .group         0x0000000000000000       0x1c Main.o
 .group         0x0000000000000000       0x18 Main.o
 .group         0x0000000000000000       0x18 Main.o
 .group         0x0000000000000000       0x1c Main.o
 .group         0x0000000000000000       0x1c Main.o
 .group         0x0000000000000000       0x10 Main.o
 .group         0x0000000000000000       0x18 Main.o
 .group         0x0000000000000000       0x10 Main.o
 .group         0x0000000000000000       0x10 Main.o
 .group         0x0000000000000000       0x10 Main.o
 .group         0x0000000000000000       0x10 Main.o
 .group         0x0000000000000000       0x10 Main.o
 .group         0x0000000000000000       0x10 Main.o
 .group         0x0000000000000000       0x10 Main.o
 .group         0x0000000000000000       0x10 Main.o
 .group         0x0000000000000000       0x10 Main.o
 .group         0x0000000000000000       0x10 Main.o
 .group         0x0000000000000000       0x10 Main.o
 .group         0x0000000000000000       0x10 Main.o
 .group         0x0000000000000000       0x10 Main.o
 .group         0x0000000000000000       0x10 Main.o
 .group         0x0000000000000000       0x10 Main.o
 .group         0x0000000000000000       0x10 Main.o
 .group         0x0000000000000000       0x10 Main.o
 .group         0x0000000000000000       0x10 Main.o
 .group         0x0000000000000000       0x10 Main.o
 .group         0x0000000000000000       0x10 Main.o
 .group         0x0000000000000000       0x10 Main.o
 .group         0x0000000000000000       0x10 Main.o
 .group         0x0000000000000000       0x10 Main.o
 .group         0x0000000000000000       0x10 Main.o
 .group         0x0000000000000000       0x10 Main.o
 .group         0x0000000000000000       0x10 Main.o
 .group         0x0000000000000000       0x10 Main.o
 .group         0x0000000000000000       0x10 Main.o
 .group         0x0000000000000000       0x10 Main.o
 .group         0x0000000000000000       0x10 Main.o
 .group         0x0000000000000000       0x10 Main.o
 .group         0x0000000000000000       0x10 Main.o
 .group         0x0000000000000000       0x10 Main.o
 .group         0x0000000000000000       0x10 Main.o
 .group         0x0000000000000000       0x10 Main.o
 .group         0x0000000000000000       0x10 Main.o
 .group         0x0000000000000000       0x10 Main.o
 .group         0x0000000000000000       0x10 Main.o
 .group         0x0000000000000000       0x10 Main.o
 .group         0x0000000000000000       0x10 Main.o
 .group         0x0000000000000000       0x10 Main.o
 .group         0x0000000000000000       0x10 Main.o
 .group         0x0000000000000000       0x10 Main.o
 .group         0x0000000000000000       0x10 Main.o
 .group         0x0000000000000000       0x10 Main.o
 .group         0x0000000000000000       0x10 Main.o
 .group         0x0000000000000000       0x10 Main.o
 .group         0x0000000000000000       0x10 Main.o
 .group         0x0000000000000000       0x10 Main.o
 .group         0x0000000000000000       0x10 Main.o
 .group         0x0000000000000000       0x10 Main.o
 .group         0x0000000000000000       0x10 Main.o
 .group         0x0000000000000000       0x10 Main.o
 .group         0x0000000000000000       0x10 Main.o
 .group         0x0000000000000000       0x10 Main.o
 .group         0x0000000000000000       0x10 Main.o
 .group         0x0000000000000000       0x10 Main.o
 .group         0x0000000000000000       0x10 Main.o
 .group         0x0000000000000000       0x10 Main.o
 .group         0x0000000000000000       0x10 Main.o
 .group         0x0000000000000000       0x10 Main.o
 .group         0x0000000000000000       0x10 Main.o
 .group         0x0000000000000000       0x10 Main.o
 .group         0x0000000000000000       0x10 Main.o
 .group         0x0000000000000000       0x10 Main.o
 .group         0x0000000000000000       0x10 Main.o
 .group         0x0000000000000000       0x10 Main.o
 .group         0x0000000000000000       0x10 Main.o
 .group         0x0000000000000000       0x10 Main.o
 .group         0x0000000000000000       0x10 Main.o
 .group         0x0000000000000000       0x10 Main.o
 .group         0x0000000000000000       0x10 Main.o
 .group         0x0000000000000000       0x10 Main.o
 .group         0x0000000000000000       0x10 Main.o
 .group         0x0000000000000000       0x10 Main.o
 .group         0x0000000000000000       0x10 Main.o
 .group         0x0000000000000000       0x10 Main.o
 .group         0x0000000000000000       0x10 Main.o
 .group         0x0000000000000000       0x10 Main.o
 .group         0x0000000000000000       0x10 Main.o
 .group         0x0000000000000000       0x10 Main.o
 .group         0x0000000000000000       0x10 Main.o
 .group         0x0000000000000000       0x10 Main.o
 .group         0x0000000000000000       0x10 Main.o
 .group         0x0000000000000000       0x10 Main.o
 .group         0x0000000000000000       0x10 Main.o
 .group         0x0000000000000000       0x10 Main.o
 .group         0x0000000000000000       0x10 Main.o
 .group         0x0000000000000000       0x10 Main.o
 .group         0x0000000000000000       0x10 Main.o
 .group         0x0000000000000000       0x10 Main.o
 .group         0x0000000000000000       0x10 Main.o
 .group         0x0000000000000000       0x10 Main.o
 .group         0x0000000000000000       0x10 Main.o
 .group         0x0000000000000000       0x10 Main.o
 .group         0x0000000000000000       0x10 Main.o
 .group         0x0000000000000000       0x10 Main.o
 .group         0x0000000000000000       0x10 Main.o
 .group         0x0000000000000000       0x10 Main.o
 .group         0x0000000000000000       0x10 Main.o
 .group         0x0000000000000000       0x10 Main.o
 .group         0x0000000000000000       0x10 Main.o
 .group         0x0000000000000000       0x10 Main.o
 .group         0x0000000000000000       0x10 Main.o
 .group         0x0000000000000000       0x10 Main.o
 .group         0x0000000000000000       0x24 Main.o
 .group         0x0000000000000000       0x18 Main.o
 .group         0x0000000000000000       0x1c Main.o
 .group         0x0000000000000000       0x14 Main.o
 .group         0x0000000000000000       0x14 Main.o
 .group         0x0000000000000000       0x18 Main.o
 .group         0x0000000000000000       0x1c Main.o
 .group         0x0000000000000000       0x18 Main.o
 .group         0x0000000000000000       0x24 Main.o
 .group         0x0000000000000000        0x8 Main.o
 .group         0x0000000000000000        0xc Main.o
 .group         0x0000000000000000       0x14 Main.o
 .group         0x0000000000000000        0x8 Main.o
 .group         0x0000000000000000        0x8 Main.o
 .group         0x0000000000000000        0xc Main.o
 .group         0x0000000000000000        0xc Main.o
 .group         0x0000000000000000        0x8 Main.o
 .group         0x0000000000000000        0x8 Main.o
 .group         0x0000000000000000        0xc Main.o
 .group         0x0000000000000000        0x8 Main.o
 .group         0x0000000000000000        0xc Main.o
 .group         0x0000000000000000        0x8 Main.o
 .group         0x0000000000000000        0xc Main.o
 .group         0x0000000000000000        0xc Main.o
 .group         0x0000000000000000        0x8 Main.o
 .group         0x0000000000000000        0xc Main.o
 .group         0x0000000000000000        0xc Main.o
 .group         0x0000000000000000        0xc Main.o
 .group         0x0000000000000000        0xc Main.o
 .group         0x0000000000000000        0xc Main.o
 .group         0x0000000000000000        0xc Main.o
 .group         0x0000000000000000        0x8 Main.o
 .group         0x0000000000000000        0xc Main.o
 .group         0x0000000000000000        0xc Main.o
 .group         0x0000000000000000        0x8 Main.o
 .group         0x0000000000000000        0xc Main.o
 .group         0x0000000000000000        0x8 Main.o
 .group         0x0000000000000000        0xc Main.o
 .group         0x0000000000000000        0xc Main.o
 .group         0x0000000000000000        0x8 Main.o
 .group         0x0000000000000000        0x8 Main.o
 .group         0x0000000000000000        0x8 Main.o
 .group         0x0000000000000000        0xc Main.o
 .group         0x0000000000000000        0xc Main.o
 .group         0x0000000000000000        0x8 Main.o
 .group         0x0000000000000000        0x8 Main.o
 .group         0x0000000000000000        0xc Main.o
 .group         0x0000000000000000        0x8 Main.o
 .group         0x0000000000000000        0x8 Main.o
 .group         0x0000000000000000        0xc Main.o
 .group         0x0000000000000000       0x10 Main.o
 .group         0x0000000000000000       0x10 Main.o
 .group         0x0000000000000000        0xc Main.o
 .group         0x0000000000000000        0xc Main.o
 .group         0x0000000000000000        0x8 Main.o
 .group         0x0000000000000000        0x8 Main.o
 .group         0x0000000000000000        0xc Main.o
 .group         0x0000000000000000        0x8 Main.o
 .group         0x0000000000000000        0x8 Main.o
 .group         0x0000000000000000        0x8 Main.o
 .group         0x0000000000000000        0xc Main.o
 .group         0x0000000000000000        0xc Main.o
 .group         0x0000000000000000        0xc Main.o
 .group         0x0000000000000000        0x8 Main.o
 .group         0x0000000000000000        0xc Main.o
 .group         0x0000000000000000        0xc Main.o
 .group         0x0000000000000000        0x8 Main.o
 .group         0x0000000000000000        0xc Main.o
 .group         0x0000000000000000        0xc Main.o
 .group         0x0000000000000000        0x8 Main.o
 .group         0x0000000000000000        0x8 Main.o
 .group         0x0000000000000000       0x14 Main.o
 .group         0x0000000000000000       0x14 Main.o
 .group         0x0000000000000000       0x14 Main.o
 .group         0x0000000000000000       0x14 Main.o
 .group         0x0000000000000000        0x8 Main.o
 .group         0x0000000000000000        0xc Main.o
 .group         0x0000000000000000        0xc Main.o
 .group         0x0000000000000000        0xc Main.o
 .group         0x0000000000000000        0xc Main.o
 .group         0x0000000000000000        0xc Main.o
 .group         0x0000000000000000        0xc Main.o
 .group         0x0000000000000000       0x14 Main.o
 .group         0x0000000000000000        0x8 Main.o
 .group         0x0000000000000000        0xc Main.o
 .group         0x0000000000000000        0xc Main.o
 .group         0x0000000000000000        0xc Main.o
 .group         0x0000000000000000        0x8 Main.o
 .group         0x0000000000000000        0xc Main.o
 .group         0x0000000000000000        0x8 Main.o
 .group         0x0000000000000000        0xc Main.o
 .group         0x0000000000000000        0xc Main.o
 .group         0x0000000000000000        0x8 Main.o
 .group         0x0000000000000000        0xc Main.o
 .group         0x0000000000000000        0x8 Main.o
 .group         0x0000000000000000        0xc Main.o
 .group         0x0000000000000000        0x8 Main.o
 .group         0x0000000000000000        0x8 Main.o
 .group         0x0000000000000000        0xc Main.o
 .group         0x0000000000000000        0x8 Main.o
 .group         0x0000000000000000        0x8 Main.o
 .group         0x0000000000000000       0x10 Main.o
 .group         0x0000000000000000        0x8 Main.o
 .group         0x0000000000000000        0x8 Main.o
 .group         0x0000000000000000        0xc Main.o
 .group         0x0000000000000000        0xc Main.o
 .group         0x0000000000000000        0xc Main.o
 .group         0x0000000000000000        0xc Main.o
 .group         0x0000000000000000        0xc Main.o
 .group         0x0000000000000000        0x8 Main.o
 .group         0x0000000000000000       0x10 Main.o
 .group         0x0000000000000000       0x10 Main.o
 .group         0x0000000000000000       0x10 Main.o
 .group         0x0000000000000000       0x10 Main.o
 .group         0x0000000000000000       0x10 Main.o
 .group         0x0000000000000000       0x10 Main.o
 .group         0x0000000000000000       0x10 Main.o
 .group         0x0000000000000000       0x10 Main.o
 .group         0x0000000000000000       0x10 Main.o
 .group         0x0000000000000000       0x10 Main.o
 .group         0x0000000000000000       0x10 Main.o
 .group         0x0000000000000000       0x10 Main.o
 .group         0x0000000000000000        0x8 Main.o
 .group         0x0000000000000000        0xc Main.o
 .group         0x0000000000000000        0xc Main.o
 .group         0x0000000000000000        0xc Main.o
 .group         0x0000000000000000        0xc Main.o
 .group         0x0000000000000000       0x1c Main.o
 .group         0x0000000000000000        0xc Main.o
 .group         0x0000000000000000        0xc Main.o
 .group         0x0000000000000000       0x24 Main.o
 .group         0x0000000000000000        0x8 Main.o
 .group         0x0000000000000000        0xc Main.o
 .group         0x0000000000000000        0x8 Main.o
 .group         0x0000000000000000        0xc Main.o
 .group         0x0000000000000000       0x10 Main.o
 .group         0x0000000000000000        0xc Main.o
 .group         0x0000000000000000        0xc Main.o
 .group         0x0000000000000000        0x8 Main.o
 .group         0x0000000000000000        0xc Main.o
 .group         0x0000000000000000        0xc Main.o
 .group         0x0000000000000000        0x8 Main.o
 .group         0x0000000000000000        0x8 Main.o
 .group         0x0000000000000000        0xc Main.o
 .group         0x0000000000000000       0x14 Main.o
 .group         0x0000000000000000       0x14 Main.o
 .group         0x0000000000000000        0x8 Main.o
 .group         0x0000000000000000        0x8 Main.o
 .group         0x0000000000000000        0x8 Main.o
 .group         0x0000000000000000        0x8 Main.o
 .group         0x0000000000000000        0x8 Main.o
 .group         0x0000000000000000        0x8 Main.o
 .group         0x0000000000000000        0x8 Main.o
 .group         0x0000000000000000        0x8 Main.o
 .group         0x0000000000000000        0x8 Main.o
 .group         0x0000000000000000        0x8 Main.o
 .group         0x0000000000000000        0x8 Main.o
 .group         0x0000000000000000        0x8 Main.o
 .text          0x0000000000000000        0x0 Main.o
 .data          0x0000000000000000        0x0 Main.o
 .bss           0x0000000000000000        0x0 Main.o
 .text._Z21SC0x25_KernelCopyDatajjj.constprop.0
                0x0000000000000000       0x10 Main.o
 .text._ZN4code4FuncIPwLj58895052EJjEEclEj.isra.0
                0x0000000000000000       0x10 Main.o
 .text._ZdaPv   0x0000000000000000        0x4 Main.o
 .text._Z21SC0x25_KernelCopyDatajjj
                0x0000000000000000       0x10 Main.o
 .rodata._Z14kernelCopyDataPhS_j.str1.1
                0x0000000000000000       0x21 Main.o
 .text._Z14kernelCopyDataPhS_j
                0x0000000000000000       0x98 Main.o
 .text._Z13kernelCopyIntPhS_j
                0x0000000000000000       0x68 Main.o
 .text._Z17writeKernelMemoryPKvj
                0x0000000000000000       0x14 Main.o
 .text._Z13memoryReleasev
                0x0000000000000000       0x98 Main.o
 .text._Z13__wrap_mallocj
                0x0000000000000000       0x14 Main.o
 .text._Z15__wrap_memalignjj
                0x0000000000000000       0x2c Main.o
 .text._Z11__wrap_freePv
                0x0000000000000000       0x1c Main.o
 .text._Z13__wrap_callocjj
                0x0000000000000000       0x3c Main.o
 .text._Z25__wrap_malloc_usable_sizePv
                0x0000000000000000        0xc Main.o
 .text._Z14__wrap_reallocPvj
                0x0000000000000000       0x60 Main.o
 .text._Z16__wrap__malloc_rP6_reentj
                0x0000000000000000        0x8 Main.o
 .text._Z16__wrap__calloc_rP6_reentjj
                0x0000000000000000        0xc Main.o
 .text._Z18__wrap__memalign_rP6_reentjj
                0x0000000000000000        0xc Main.o
 .text._Z14__wrap__free_rP6_reentPv
                0x0000000000000000        0x8 Main.o
 .text._Z28__wrap__malloc_usable_size_rP6_reentPv
                0x0000000000000000        0x8 Main.o
 .text._Z17__wrap__realloc_rP6_reentPvj
                0x0000000000000000        0xc Main.o
 .text._Z10MEM2_allocjj
                0x0000000000000000       0x10 Main.o
 .text._Z9MEM2_freePv
                0x0000000000000000        0x4 Main.o
 .text._Z10MEM1_allocjj
                0x0000000000000000       0x2c Main.o
 .text._Z9MEM1_freePv
                0x0000000000000000       0x1c Main.o
 .text._Z15MEMBucket_allocjj
                0x0000000000000000       0x2c Main.o
 .text._Z14MEMBucket_freePv
                0x0000000000000000       0x1c Main.o
 .text._Z13getEffectNamei
                0x0000000000000000       0x5c Main.o
 .text._Znaj    0x0000000000000000        0x4 Main.o
 .text._ZN2xf6VectorIPPvEC2Ev
                0x0000000000000000       0x10 Main.o
 .text.startup._Z41__static_initialization_and_destruction_0ii.constprop.0
                0x0000000000000000        0xc Main.o
 .text._Z4_newIwEPT_j
                0x0000000000000000        0x8 Main.o
 .text._Z11charToWCharPKci
                0x0000000000000000       0xa8 Main.o
 .text.startup._GLOBAL__sub_I_entry
                0x0000000000000000        0x4 Main.o
 .ctors         0x0000000000000000        0x4 Main.o
 .sbss._ZN2xf3GUI10frameCountE
                0x0000000000000000        0x4 Main.o
 .bss.kernelCopyBuffer
                0x0000000000000000       0x10 Main.o
 .bss.kernelCopyBufferOld
                0x0000000000000000       0x80 Main.o
 .sbss._ZN4code7mLehmerE
                0x0000000000000000        0x4 Main.o
 .eh_frame      0x0000000000000000     0x40e4 Main.o
 .text          0x0000000000000000        0x0 c:/devkitpro/devkitppc/bin/../lib/gcc/powerpc-eabi/12.1.0/../../../../powerpc-eabi/lib\libstdc++.a(del_ops.o)
 .data          0x0000000000000000        0x0 c:/devkitpro/devkitppc/bin/../lib/gcc/powerpc-eabi/12.1.0/../../../../powerpc-eabi/lib\libstdc++.a(del_ops.o)
 .bss           0x0000000000000000        0x0 c:/devkitpro/devkitppc/bin/../lib/gcc/powerpc-eabi/12.1.0/../../../../powerpc-eabi/lib\libstdc++.a(del_ops.o)
 .eh_frame      0x0000000000000000       0x28 c:/devkitpro/devkitppc/bin/../lib/gcc/powerpc-eabi/12.1.0/../../../../powerpc-eabi/lib\libstdc++.a(del_ops.o)
 .text          0x0000000000000000        0x0 c:/devkitpro/devkitppc/bin/../lib/gcc/powerpc-eabi/12.1.0/../../../../powerpc-eabi/lib\libstdc++.a(eh_aux_runtime.o)
 .data          0x0000000000000000        0x0 c:/devkitpro/devkitppc/bin/../lib/gcc/powerpc-eabi/12.1.0/../../../../powerpc-eabi/lib\libstdc++.a(eh_aux_runtime.o)
 .bss           0x0000000000000000        0x0 c:/devkitpro/devkitppc/bin/../lib/gcc/powerpc-eabi/12.1.0/../../../../powerpc-eabi/lib\libstdc++.a(eh_aux_runtime.o)
 .text.unlikely.__cxa_bad_cast
                0x0000000000000000       0x34 c:/devkitpro/devkitppc/bin/../lib/gcc/powerpc-eabi/12.1.0/../../../../powerpc-eabi/lib\libstdc++.a(eh_aux_runtime.o)
 .text.unlikely.__cxa_bad_typeid
                0x0000000000000000       0x34 c:/devkitpro/devkitppc/bin/../lib/gcc/powerpc-eabi/12.1.0/../../../../powerpc-eabi/lib\libstdc++.a(eh_aux_runtime.o)
 .eh_frame      0x0000000000000000       0x5c c:/devkitpro/devkitppc/bin/../lib/gcc/powerpc-eabi/12.1.0/../../../../powerpc-eabi/lib\libstdc++.a(eh_aux_runtime.o)
 .text          0x0000000000000000        0x0 c:/devkitpro/devkitppc/bin/../lib/gcc/powerpc-eabi/12.1.0/../../../../powerpc-eabi/lib\libstdc++.a(eh_personality.o)
 .data          0x0000000000000000        0x0 c:/devkitpro/devkitppc/bin/../lib/gcc/powerpc-eabi/12.1.0/../../../../powerpc-eabi/lib\libstdc++.a(eh_personality.o)
 .bss           0x0000000000000000        0x0 c:/devkitpro/devkitppc/bin/../lib/gcc/powerpc-eabi/12.1.0/../../../../powerpc-eabi/lib\libstdc++.a(eh_personality.o)
 .text.__cxa_call_unexpected
                0x0000000000000000       0xf8 c:/devkitpro/devkitppc/bin/../lib/gcc/powerpc-eabi/12.1.0/../../../../powerpc-eabi/lib\libstdc++.a(eh_personality.o)
 .gcc_except_table.__cxa_call_unexpected
                0x0000000000000000       0x20 c:/devkitpro/devkitppc/bin/../lib/gcc/powerpc-eabi/12.1.0/../../../../powerpc-eabi/lib\libstdc++.a(eh_personality.o)
 .eh_frame      0x0000000000000000      0x320 c:/devkitpro/devkitppc/bin/../lib/gcc/powerpc-eabi/12.1.0/../../../../powerpc-eabi/lib\libstdc++.a(eh_personality.o)
 .text          0x0000000000000000        0x0 c:/devkitpro/devkitppc/bin/../lib/gcc/powerpc-eabi/12.1.0/../../../../powerpc-eabi/lib\libstdc++.a(eh_terminate.o)
 .data          0x0000000000000000        0x0 c:/devkitpro/devkitppc/bin/../lib/gcc/powerpc-eabi/12.1.0/../../../../powerpc-eabi/lib\libstdc++.a(eh_terminate.o)
 .bss           0x0000000000000000        0x0 c:/devkitpro/devkitppc/bin/../lib/gcc/powerpc-eabi/12.1.0/../../../../powerpc-eabi/lib\libstdc++.a(eh_terminate.o)
 .text._ZSt13set_terminatePFvvE
                0x0000000000000000       0x34 c:/devkitpro/devkitppc/bin/../lib/gcc/powerpc-eabi/12.1.0/../../../../powerpc-eabi/lib\libstdc++.a(eh_terminate.o)
 .text._ZSt14set_unexpectedPFvvE
                0x0000000000000000       0x34 c:/devkitpro/devkitppc/bin/../lib/gcc/powerpc-eabi/12.1.0/../../../../powerpc-eabi/lib\libstdc++.a(eh_terminate.o)
 .eh_frame      0x0000000000000000       0xe4 c:/devkitpro/devkitppc/bin/../lib/gcc/powerpc-eabi/12.1.0/../../../../powerpc-eabi/lib\libstdc++.a(eh_terminate.o)
 .text          0x0000000000000000        0x0 c:/devkitpro/devkitppc/bin/../lib/gcc/powerpc-eabi/12.1.0/../../../../powerpc-eabi/lib\libstdc++.a(eh_throw.o)
 .data          0x0000000000000000        0x0 c:/devkitpro/devkitppc/bin/../lib/gcc/powerpc-eabi/12.1.0/../../../../powerpc-eabi/lib\libstdc++.a(eh_throw.o)
 .bss           0x0000000000000000        0x0 c:/devkitpro/devkitppc/bin/../lib/gcc/powerpc-eabi/12.1.0/../../../../powerpc-eabi/lib\libstdc++.a(eh_throw.o)
 .text.__cxa_rethrow
                0x0000000000000000       0x8c c:/devkitpro/devkitppc/bin/../lib/gcc/powerpc-eabi/12.1.0/../../../../powerpc-eabi/lib\libstdc++.a(eh_throw.o)
 .eh_frame      0x0000000000000000       0xb0 c:/devkitpro/devkitppc/bin/../lib/gcc/powerpc-eabi/12.1.0/../../../../powerpc-eabi/lib\libstdc++.a(eh_throw.o)
 .text          0x0000000000000000        0x0 c:/devkitpro/devkitppc/bin/../lib/gcc/powerpc-eabi/12.1.0/../../../../powerpc-eabi/lib\libstdc++.a(eh_unex_handler.o)
 .data          0x0000000000000000        0x0 c:/devkitpro/devkitppc/bin/../lib/gcc/powerpc-eabi/12.1.0/../../../../powerpc-eabi/lib\libstdc++.a(eh_unex_handler.o)
 .bss           0x0000000000000000        0x0 c:/devkitpro/devkitppc/bin/../lib/gcc/powerpc-eabi/12.1.0/../../../../powerpc-eabi/lib\libstdc++.a(eh_unex_handler.o)
 .group         0x0000000000000000        0xc c:/devkitpro/devkitppc/bin/../lib/gcc/powerpc-eabi/12.1.0/../../../../powerpc-eabi/lib\libstdc++.a(guard.o)
 .group         0x0000000000000000        0xc c:/devkitpro/devkitppc/bin/../lib/gcc/powerpc-eabi/12.1.0/../../../../powerpc-eabi/lib\libstdc++.a(guard.o)
 .group         0x0000000000000000        0xc c:/devkitpro/devkitppc/bin/../lib/gcc/powerpc-eabi/12.1.0/../../../../powerpc-eabi/lib\libstdc++.a(guard.o)
 .group         0x0000000000000000        0xc c:/devkitpro/devkitppc/bin/../lib/gcc/powerpc-eabi/12.1.0/../../../../powerpc-eabi/lib\libstdc++.a(guard.o)
 .group         0x0000000000000000       0x14 c:/devkitpro/devkitppc/bin/../lib/gcc/powerpc-eabi/12.1.0/../../../../powerpc-eabi/lib\libstdc++.a(guard.o)
 .group         0x0000000000000000       0x14 c:/devkitpro/devkitppc/bin/../lib/gcc/powerpc-eabi/12.1.0/../../../../powerpc-eabi/lib\libstdc++.a(guard.o)
 .group         0x0000000000000000       0x14 c:/devkitpro/devkitppc/bin/../lib/gcc/powerpc-eabi/12.1.0/../../../../powerpc-eabi/lib\libstdc++.a(guard.o)
 .group         0x0000000000000000       0x14 c:/devkitpro/devkitppc/bin/../lib/gcc/powerpc-eabi/12.1.0/../../../../powerpc-eabi/lib\libstdc++.a(guard.o)
 .group         0x0000000000000000        0xc c:/devkitpro/devkitppc/bin/../lib/gcc/powerpc-eabi/12.1.0/../../../../powerpc-eabi/lib\libstdc++.a(guard.o)
 .group         0x0000000000000000        0xc c:/devkitpro/devkitppc/bin/../lib/gcc/powerpc-eabi/12.1.0/../../../../powerpc-eabi/lib\libstdc++.a(guard.o)
 .group         0x0000000000000000        0xc c:/devkitpro/devkitppc/bin/../lib/gcc/powerpc-eabi/12.1.0/../../../../powerpc-eabi/lib\libstdc++.a(guard.o)
 .group         0x0000000000000000        0x8 c:/devkitpro/devkitppc/bin/../lib/gcc/powerpc-eabi/12.1.0/../../../../powerpc-eabi/lib\libstdc++.a(guard.o)
 .group         0x0000000000000000        0xc c:/devkitpro/devkitppc/bin/../lib/gcc/powerpc-eabi/12.1.0/../../../../powerpc-eabi/lib\libstdc++.a(guard.o)
 .group         0x0000000000000000        0x8 c:/devkitpro/devkitppc/bin/../lib/gcc/powerpc-eabi/12.1.0/../../../../powerpc-eabi/lib\libstdc++.a(guard.o)
 .group         0x0000000000000000        0xc c:/devkitpro/devkitppc/bin/../lib/gcc/powerpc-eabi/12.1.0/../../../../powerpc-eabi/lib\libstdc++.a(guard.o)
 .group         0x0000000000000000        0x8 c:/devkitpro/devkitppc/bin/../lib/gcc/powerpc-eabi/12.1.0/../../../../powerpc-eabi/lib\libstdc++.a(guard.o)
 .group         0x0000000000000000        0xc c:/devkitpro/devkitppc/bin/../lib/gcc/powerpc-eabi/12.1.0/../../../../powerpc-eabi/lib\libstdc++.a(guard.o)
 .group         0x0000000000000000        0x8 c:/devkitpro/devkitppc/bin/../lib/gcc/powerpc-eabi/12.1.0/../../../../powerpc-eabi/lib\libstdc++.a(guard.o)
 .group         0x0000000000000000        0xc c:/devkitpro/devkitppc/bin/../lib/gcc/powerpc-eabi/12.1.0/../../../../powerpc-eabi/lib\libstdc++.a(guard.o)
 .group         0x0000000000000000        0xc c:/devkitpro/devkitppc/bin/../lib/gcc/powerpc-eabi/12.1.0/../../../../powerpc-eabi/lib\libstdc++.a(guard.o)
 .group         0x0000000000000000        0xc c:/devkitpro/devkitppc/bin/../lib/gcc/powerpc-eabi/12.1.0/../../../../powerpc-eabi/lib\libstdc++.a(guard.o)
 .group         0x0000000000000000        0xc c:/devkitpro/devkitppc/bin/../lib/gcc/powerpc-eabi/12.1.0/../../../../powerpc-eabi/lib\libstdc++.a(guard.o)
 .group         0x0000000000000000        0xc c:/devkitpro/devkitppc/bin/../lib/gcc/powerpc-eabi/12.1.0/../../../../powerpc-eabi/lib\libstdc++.a(guard.o)
 .text          0x0000000000000000        0x0 c:/devkitpro/devkitppc/bin/../lib/gcc/powerpc-eabi/12.1.0/../../../../powerpc-eabi/lib\libstdc++.a(guard.o)
 .data          0x0000000000000000        0x0 c:/devkitpro/devkitppc/bin/../lib/gcc/powerpc-eabi/12.1.0/../../../../powerpc-eabi/lib\libstdc++.a(guard.o)
 .bss           0x0000000000000000        0x0 c:/devkitpro/devkitppc/bin/../lib/gcc/powerpc-eabi/12.1.0/../../../../powerpc-eabi/lib\libstdc++.a(guard.o)
 .text.__cxa_guard_abort
                0x0000000000000000      0x100 c:/devkitpro/devkitppc/bin/../lib/gcc/powerpc-eabi/12.1.0/../../../../powerpc-eabi/lib\libstdc++.a(guard.o)
 .gcc_except_table.__cxa_guard_abort
                0x0000000000000000        0x4 c:/devkitpro/devkitppc/bin/../lib/gcc/powerpc-eabi/12.1.0/../../../../powerpc-eabi/lib\libstdc++.a(guard.o)
 .eh_frame      0x0000000000000000      0x334 c:/devkitpro/devkitppc/bin/../lib/gcc/powerpc-eabi/12.1.0/../../../../powerpc-eabi/lib\libstdc++.a(guard.o)
 .group         0x0000000000000000        0x8 c:/devkitpro/devkitppc/bin/../lib/gcc/powerpc-eabi/12.1.0/../../../../powerpc-eabi/lib\libstdc++.a(guard_error.o)
 .group         0x0000000000000000        0xc c:/devkitpro/devkitppc/bin/../lib/gcc/powerpc-eabi/12.1.0/../../../../powerpc-eabi/lib\libstdc++.a(guard_error.o)
 .group         0x0000000000000000        0xc c:/devkitpro/devkitppc/bin/../lib/gcc/powerpc-eabi/12.1.0/../../../../powerpc-eabi/lib\libstdc++.a(guard_error.o)
 .text          0x0000000000000000        0x0 c:/devkitpro/devkitppc/bin/../lib/gcc/powerpc-eabi/12.1.0/../../../../powerpc-eabi/lib\libstdc++.a(guard_error.o)
 .data          0x0000000000000000        0x0 c:/devkitpro/devkitppc/bin/../lib/gcc/powerpc-eabi/12.1.0/../../../../powerpc-eabi/lib\libstdc++.a(guard_error.o)
 .bss           0x0000000000000000        0x0 c:/devkitpro/devkitppc/bin/../lib/gcc/powerpc-eabi/12.1.0/../../../../powerpc-eabi/lib\libstdc++.a(guard_error.o)
 .eh_frame      0x0000000000000000       0x64 c:/devkitpro/devkitppc/bin/../lib/gcc/powerpc-eabi/12.1.0/../../../../powerpc-eabi/lib\libstdc++.a(guard_error.o)
 .group         0x0000000000000000        0x8 c:/devkitpro/devkitppc/bin/../lib/gcc/powerpc-eabi/12.1.0/../../../../powerpc-eabi/lib\libstdc++.a(si_class_type_info.o)
 .group         0x0000000000000000        0xc c:/devkitpro/devkitppc/bin/../lib/gcc/powerpc-eabi/12.1.0/../../../../powerpc-eabi/lib\libstdc++.a(si_class_type_info.o)
 .group         0x0000000000000000        0xc c:/devkitpro/devkitppc/bin/../lib/gcc/powerpc-eabi/12.1.0/../../../../powerpc-eabi/lib\libstdc++.a(si_class_type_info.o)
 .text          0x0000000000000000        0x0 c:/devkitpro/devkitppc/bin/../lib/gcc/powerpc-eabi/12.1.0/../../../../powerpc-eabi/lib\libstdc++.a(si_class_type_info.o)
 .data          0x0000000000000000        0x0 c:/devkitpro/devkitppc/bin/../lib/gcc/powerpc-eabi/12.1.0/../../../../powerpc-eabi/lib\libstdc++.a(si_class_type_info.o)
 .bss           0x0000000000000000        0x0 c:/devkitpro/devkitppc/bin/../lib/gcc/powerpc-eabi/12.1.0/../../../../powerpc-eabi/lib\libstdc++.a(si_class_type_info.o)
 .eh_frame      0x0000000000000000      0x154 c:/devkitpro/devkitppc/bin/../lib/gcc/powerpc-eabi/12.1.0/../../../../powerpc-eabi/lib\libstdc++.a(si_class_type_info.o)
 .group         0x0000000000000000        0x8 c:/devkitpro/devkitppc/bin/../lib/gcc/powerpc-eabi/12.1.0/../../../../powerpc-eabi/lib\libstdc++.a(tinfo.o)
 .group         0x0000000000000000        0xc c:/devkitpro/devkitppc/bin/../lib/gcc/powerpc-eabi/12.1.0/../../../../powerpc-eabi/lib\libstdc++.a(tinfo.o)
 .group         0x0000000000000000        0xc c:/devkitpro/devkitppc/bin/../lib/gcc/powerpc-eabi/12.1.0/../../../../powerpc-eabi/lib\libstdc++.a(tinfo.o)
 .text          0x0000000000000000        0x0 c:/devkitpro/devkitppc/bin/../lib/gcc/powerpc-eabi/12.1.0/../../../../powerpc-eabi/lib\libstdc++.a(tinfo.o)
 .data          0x0000000000000000        0x0 c:/devkitpro/devkitppc/bin/../lib/gcc/powerpc-eabi/12.1.0/../../../../powerpc-eabi/lib\libstdc++.a(tinfo.o)
 .bss           0x0000000000000000        0x0 c:/devkitpro/devkitppc/bin/../lib/gcc/powerpc-eabi/12.1.0/../../../../powerpc-eabi/lib\libstdc++.a(tinfo.o)
 .text._ZNKSt9type_info11__do_upcastEPKN10__cxxabiv117__class_type_infoEPPv
                0x0000000000000000        0x8 c:/devkitpro/devkitppc/bin/../lib/gcc/powerpc-eabi/12.1.0/../../../../powerpc-eabi/lib\libstdc++.a(tinfo.o)
 .text._ZNSt9type_infoD0Ev
                0x0000000000000000        0x8 c:/devkitpro/devkitppc/bin/../lib/gcc/powerpc-eabi/12.1.0/../../../../powerpc-eabi/lib\libstdc++.a(tinfo.o)
 .text._ZNKSt9type_info10__do_catchEPKS_PPvj
                0x0000000000000000       0x68 c:/devkitpro/devkitppc/bin/../lib/gcc/powerpc-eabi/12.1.0/../../../../powerpc-eabi/lib\libstdc++.a(tinfo.o)
 .rodata._ZTVSt9type_info
                0x0000000000000000       0x20 c:/devkitpro/devkitppc/bin/../lib/gcc/powerpc-eabi/12.1.0/../../../../powerpc-eabi/lib\libstdc++.a(tinfo.o)
 .eh_frame      0x0000000000000000       0x84 c:/devkitpro/devkitppc/bin/../lib/gcc/powerpc-eabi/12.1.0/../../../../powerpc-eabi/lib\libstdc++.a(tinfo.o)
 .group         0x0000000000000000        0x8 c:/devkitpro/devkitppc/bin/../lib/gcc/powerpc-eabi/12.1.0/../../../../powerpc-eabi/lib\libstdc++.a(bad_array_new.o)
 .group         0x0000000000000000        0xc c:/devkitpro/devkitppc/bin/../lib/gcc/powerpc-eabi/12.1.0/../../../../powerpc-eabi/lib\libstdc++.a(bad_array_new.o)
 .group         0x0000000000000000        0xc c:/devkitpro/devkitppc/bin/../lib/gcc/powerpc-eabi/12.1.0/../../../../powerpc-eabi/lib\libstdc++.a(bad_array_new.o)
 .text          0x0000000000000000        0x0 c:/devkitpro/devkitppc/bin/../lib/gcc/powerpc-eabi/12.1.0/../../../../powerpc-eabi/lib\libstdc++.a(bad_array_new.o)
 .data          0x0000000000000000        0x0 c:/devkitpro/devkitppc/bin/../lib/gcc/powerpc-eabi/12.1.0/../../../../powerpc-eabi/lib\libstdc++.a(bad_array_new.o)
 .bss           0x0000000000000000        0x0 c:/devkitpro/devkitppc/bin/../lib/gcc/powerpc-eabi/12.1.0/../../../../powerpc-eabi/lib\libstdc++.a(bad_array_new.o)
 .eh_frame      0x0000000000000000       0x64 c:/devkitpro/devkitppc/bin/../lib/gcc/powerpc-eabi/12.1.0/../../../../powerpc-eabi/lib\libstdc++.a(bad_array_new.o)
 .group         0x0000000000000000        0x8 c:/devkitpro/devkitppc/bin/../lib/gcc/powerpc-eabi/12.1.0/../../../../powerpc-eabi/lib\libstdc++.a(bad_cast.o)
 .group         0x0000000000000000        0xc c:/devkitpro/devkitppc/bin/../lib/gcc/powerpc-eabi/12.1.0/../../../../powerpc-eabi/lib\libstdc++.a(bad_cast.o)
 .group         0x0000000000000000        0xc c:/devkitpro/devkitppc/bin/../lib/gcc/powerpc-eabi/12.1.0/../../../../powerpc-eabi/lib\libstdc++.a(bad_cast.o)
 .text          0x0000000000000000        0x0 c:/devkitpro/devkitppc/bin/../lib/gcc/powerpc-eabi/12.1.0/../../../../powerpc-eabi/lib\libstdc++.a(bad_cast.o)
 .data          0x0000000000000000        0x0 c:/devkitpro/devkitppc/bin/../lib/gcc/powerpc-eabi/12.1.0/../../../../powerpc-eabi/lib\libstdc++.a(bad_cast.o)
 .bss           0x0000000000000000        0x0 c:/devkitpro/devkitppc/bin/../lib/gcc/powerpc-eabi/12.1.0/../../../../powerpc-eabi/lib\libstdc++.a(bad_cast.o)
 .rodata._ZNKSt8bad_cast4whatEv.str1.4
                0x0000000000000000        0xe c:/devkitpro/devkitppc/bin/../lib/gcc/powerpc-eabi/12.1.0/../../../../powerpc-eabi/lib\libstdc++.a(bad_cast.o)
 .text._ZNKSt8bad_cast4whatEv
                0x0000000000000000        0xc c:/devkitpro/devkitppc/bin/../lib/gcc/powerpc-eabi/12.1.0/../../../../powerpc-eabi/lib\libstdc++.a(bad_cast.o)
 .text._ZNSt8bad_castD2Ev
                0x0000000000000000       0x10 c:/devkitpro/devkitppc/bin/../lib/gcc/powerpc-eabi/12.1.0/../../../../powerpc-eabi/lib\libstdc++.a(bad_cast.o)
 .text._ZNSt8bad_castD0Ev
                0x0000000000000000       0x40 c:/devkitpro/devkitppc/bin/../lib/gcc/powerpc-eabi/12.1.0/../../../../powerpc-eabi/lib\libstdc++.a(bad_cast.o)
 .rodata._ZTSSt8bad_cast
                0x0000000000000000        0xc c:/devkitpro/devkitppc/bin/../lib/gcc/powerpc-eabi/12.1.0/../../../../powerpc-eabi/lib\libstdc++.a(bad_cast.o)
 .rodata._ZTISt8bad_cast
                0x0000000000000000        0xc c:/devkitpro/devkitppc/bin/../lib/gcc/powerpc-eabi/12.1.0/../../../../powerpc-eabi/lib\libstdc++.a(bad_cast.o)
 .rodata._ZTVSt8bad_cast
                0x0000000000000000       0x14 c:/devkitpro/devkitppc/bin/../lib/gcc/powerpc-eabi/12.1.0/../../../../powerpc-eabi/lib\libstdc++.a(bad_cast.o)
 .comment       0x0000000000000000       0x24 c:/devkitpro/devkitppc/bin/../lib/gcc/powerpc-eabi/12.1.0/../../../../powerpc-eabi/lib\libstdc++.a(bad_cast.o)
 .eh_frame      0x0000000000000000       0x64 c:/devkitpro/devkitppc/bin/../lib/gcc/powerpc-eabi/12.1.0/../../../../powerpc-eabi/lib\libstdc++.a(bad_cast.o)
 .group         0x0000000000000000        0x8 c:/devkitpro/devkitppc/bin/../lib/gcc/powerpc-eabi/12.1.0/../../../../powerpc-eabi/lib\libstdc++.a(bad_typeid.o)
 .group         0x0000000000000000        0xc c:/devkitpro/devkitppc/bin/../lib/gcc/powerpc-eabi/12.1.0/../../../../powerpc-eabi/lib\libstdc++.a(bad_typeid.o)
 .group         0x0000000000000000        0xc c:/devkitpro/devkitppc/bin/../lib/gcc/powerpc-eabi/12.1.0/../../../../powerpc-eabi/lib\libstdc++.a(bad_typeid.o)
 .text          0x0000000000000000        0x0 c:/devkitpro/devkitppc/bin/../lib/gcc/powerpc-eabi/12.1.0/../../../../powerpc-eabi/lib\libstdc++.a(bad_typeid.o)
 .data          0x0000000000000000        0x0 c:/devkitpro/devkitppc/bin/../lib/gcc/powerpc-eabi/12.1.0/../../../../powerpc-eabi/lib\libstdc++.a(bad_typeid.o)
 .bss           0x0000000000000000        0x0 c:/devkitpro/devkitppc/bin/../lib/gcc/powerpc-eabi/12.1.0/../../../../powerpc-eabi/lib\libstdc++.a(bad_typeid.o)
 .rodata._ZNKSt10bad_typeid4whatEv.str1.4
                0x0000000000000000       0x10 c:/devkitpro/devkitppc/bin/../lib/gcc/powerpc-eabi/12.1.0/../../../../powerpc-eabi/lib\libstdc++.a(bad_typeid.o)
 .text._ZNKSt10bad_typeid4whatEv
                0x0000000000000000        0xc c:/devkitpro/devkitppc/bin/../lib/gcc/powerpc-eabi/12.1.0/../../../../powerpc-eabi/lib\libstdc++.a(bad_typeid.o)
 .text._ZNSt10bad_typeidD2Ev
                0x0000000000000000       0x10 c:/devkitpro/devkitppc/bin/../lib/gcc/powerpc-eabi/12.1.0/../../../../powerpc-eabi/lib\libstdc++.a(bad_typeid.o)
 .text._ZNSt10bad_typeidD0Ev
                0x0000000000000000       0x40 c:/devkitpro/devkitppc/bin/../lib/gcc/powerpc-eabi/12.1.0/../../../../powerpc-eabi/lib\libstdc++.a(bad_typeid.o)
 .rodata._ZTSSt10bad_typeid
                0x0000000000000000        0xf c:/devkitpro/devkitppc/bin/../lib/gcc/powerpc-eabi/12.1.0/../../../../powerpc-eabi/lib\libstdc++.a(bad_typeid.o)
 .rodata._ZTISt10bad_typeid
                0x0000000000000000        0xc c:/devkitpro/devkitppc/bin/../lib/gcc/powerpc-eabi/12.1.0/../../../../powerpc-eabi/lib\libstdc++.a(bad_typeid.o)
 .rodata._ZTVSt10bad_typeid
                0x0000000000000000       0x14 c:/devkitpro/devkitppc/bin/../lib/gcc/powerpc-eabi/12.1.0/../../../../powerpc-eabi/lib\libstdc++.a(bad_typeid.o)
 .comment       0x0000000000000000       0x24 c:/devkitpro/devkitppc/bin/../lib/gcc/powerpc-eabi/12.1.0/../../../../powerpc-eabi/lib\libstdc++.a(bad_typeid.o)
 .eh_frame      0x0000000000000000       0x64 c:/devkitpro/devkitppc/bin/../lib/gcc/powerpc-eabi/12.1.0/../../../../powerpc-eabi/lib\libstdc++.a(bad_typeid.o)
 .group         0x0000000000000000        0x8 c:/devkitpro/devkitppc/bin/../lib/gcc/powerpc-eabi/12.1.0/../../../../powerpc-eabi/lib\libstdc++.a(class_type_info.o)
 .group         0x0000000000000000        0xc c:/devkitpro/devkitppc/bin/../lib/gcc/powerpc-eabi/12.1.0/../../../../powerpc-eabi/lib\libstdc++.a(class_type_info.o)
 .group         0x0000000000000000        0xc c:/devkitpro/devkitppc/bin/../lib/gcc/powerpc-eabi/12.1.0/../../../../powerpc-eabi/lib\libstdc++.a(class_type_info.o)
 .text          0x0000000000000000        0x0 c:/devkitpro/devkitppc/bin/../lib/gcc/powerpc-eabi/12.1.0/../../../../powerpc-eabi/lib\libstdc++.a(class_type_info.o)
 .data          0x0000000000000000        0x0 c:/devkitpro/devkitppc/bin/../lib/gcc/powerpc-eabi/12.1.0/../../../../powerpc-eabi/lib\libstdc++.a(class_type_info.o)
 .bss           0x0000000000000000        0x0 c:/devkitpro/devkitppc/bin/../lib/gcc/powerpc-eabi/12.1.0/../../../../powerpc-eabi/lib\libstdc++.a(class_type_info.o)
 .eh_frame      0x0000000000000000      0x168 c:/devkitpro/devkitppc/bin/../lib/gcc/powerpc-eabi/12.1.0/../../../../powerpc-eabi/lib\libstdc++.a(class_type_info.o)
 .group         0x0000000000000000        0xc c:/devkitpro/devkitppc/bin/../lib/gcc/powerpc-eabi/12.1.0/../../../../powerpc-eabi/lib\libstdc++.a(eh_alloc.o)
 .group         0x0000000000000000        0xc c:/devkitpro/devkitppc/bin/../lib/gcc/powerpc-eabi/12.1.0/../../../../powerpc-eabi/lib\libstdc++.a(eh_alloc.o)
 .group         0x0000000000000000       0x14 c:/devkitpro/devkitppc/bin/../lib/gcc/powerpc-eabi/12.1.0/../../../../powerpc-eabi/lib\libstdc++.a(eh_alloc.o)
 .group         0x0000000000000000       0x14 c:/devkitpro/devkitppc/bin/../lib/gcc/powerpc-eabi/12.1.0/../../../../powerpc-eabi/lib\libstdc++.a(eh_alloc.o)
 .group         0x0000000000000000        0xc c:/devkitpro/devkitppc/bin/../lib/gcc/powerpc-eabi/12.1.0/../../../../powerpc-eabi/lib\libstdc++.a(eh_alloc.o)
 .group         0x0000000000000000        0xc c:/devkitpro/devkitppc/bin/../lib/gcc/powerpc-eabi/12.1.0/../../../../powerpc-eabi/lib\libstdc++.a(eh_alloc.o)
 .group         0x0000000000000000        0x8 c:/devkitpro/devkitppc/bin/../lib/gcc/powerpc-eabi/12.1.0/../../../../powerpc-eabi/lib\libstdc++.a(eh_alloc.o)
 .group         0x0000000000000000        0xc c:/devkitpro/devkitppc/bin/../lib/gcc/powerpc-eabi/12.1.0/../../../../powerpc-eabi/lib\libstdc++.a(eh_alloc.o)
 .group         0x0000000000000000        0x8 c:/devkitpro/devkitppc/bin/../lib/gcc/powerpc-eabi/12.1.0/../../../../powerpc-eabi/lib\libstdc++.a(eh_alloc.o)
 .group         0x0000000000000000        0xc c:/devkitpro/devkitppc/bin/../lib/gcc/powerpc-eabi/12.1.0/../../../../powerpc-eabi/lib\libstdc++.a(eh_alloc.o)
 .group         0x0000000000000000        0xc c:/devkitpro/devkitppc/bin/../lib/gcc/powerpc-eabi/12.1.0/../../../../powerpc-eabi/lib\libstdc++.a(eh_alloc.o)
 .group         0x0000000000000000        0xc c:/devkitpro/devkitppc/bin/../lib/gcc/powerpc-eabi/12.1.0/../../../../powerpc-eabi/lib\libstdc++.a(eh_alloc.o)
 .text          0x0000000000000000        0x0 c:/devkitpro/devkitppc/bin/../lib/gcc/powerpc-eabi/12.1.0/../../../../powerpc-eabi/lib\libstdc++.a(eh_alloc.o)
 .data          0x0000000000000000        0x0 c:/devkitpro/devkitppc/bin/../lib/gcc/powerpc-eabi/12.1.0/../../../../powerpc-eabi/lib\libstdc++.a(eh_alloc.o)
 .bss           0x0000000000000000        0x0 c:/devkitpro/devkitppc/bin/../lib/gcc/powerpc-eabi/12.1.0/../../../../powerpc-eabi/lib\libstdc++.a(eh_alloc.o)
 .rodata._ZNK9__gnu_cxx24__concurrence_lock_error4whatEv.str1.4
                0x0000000000000000       0x24 c:/devkitpro/devkitppc/bin/../lib/gcc/powerpc-eabi/12.1.0/../../../../powerpc-eabi/lib\libstdc++.a(eh_alloc.o)
 .text._ZNK9__gnu_cxx24__concurrence_lock_error4whatEv
                0x0000000000000000        0xc c:/devkitpro/devkitppc/bin/../lib/gcc/powerpc-eabi/12.1.0/../../../../powerpc-eabi/lib\libstdc++.a(eh_alloc.o)
 .rodata._ZNK9__gnu_cxx26__concurrence_unlock_error4whatEv.str1.4
                0x0000000000000000       0x26 c:/devkitpro/devkitppc/bin/../lib/gcc/powerpc-eabi/12.1.0/../../../../powerpc-eabi/lib\libstdc++.a(eh_alloc.o)
 .text._ZNK9__gnu_cxx26__concurrence_unlock_error4whatEv
                0x0000000000000000        0xc c:/devkitpro/devkitppc/bin/../lib/gcc/powerpc-eabi/12.1.0/../../../../powerpc-eabi/lib\libstdc++.a(eh_alloc.o)
 .text._ZN9__gnu_cxx24__concurrence_lock_errorD2Ev
                0x0000000000000000       0x10 c:/devkitpro/devkitppc/bin/../lib/gcc/powerpc-eabi/12.1.0/../../../../powerpc-eabi/lib\libstdc++.a(eh_alloc.o)
 .text._ZN9__gnu_cxx26__concurrence_unlock_errorD2Ev
                0x0000000000000000       0x10 c:/devkitpro/devkitppc/bin/../lib/gcc/powerpc-eabi/12.1.0/../../../../powerpc-eabi/lib\libstdc++.a(eh_alloc.o)
 .text._ZN9__gnu_cxx24__concurrence_lock_errorD0Ev
                0x0000000000000000       0x40 c:/devkitpro/devkitppc/bin/../lib/gcc/powerpc-eabi/12.1.0/../../../../powerpc-eabi/lib\libstdc++.a(eh_alloc.o)
 .text._ZN9__gnu_cxx26__concurrence_unlock_errorD0Ev
                0x0000000000000000       0x40 c:/devkitpro/devkitppc/bin/../lib/gcc/powerpc-eabi/12.1.0/../../../../powerpc-eabi/lib\libstdc++.a(eh_alloc.o)
 .text.unlikely._ZN9__gnu_cxx30__throw_concurrence_lock_errorEv
                0x0000000000000000       0x34 c:/devkitpro/devkitppc/bin/../lib/gcc/powerpc-eabi/12.1.0/../../../../powerpc-eabi/lib\libstdc++.a(eh_alloc.o)
 .text.unlikely._ZN9__gnu_cxx32__throw_concurrence_unlock_errorEv
                0x0000000000000000       0x34 c:/devkitpro/devkitppc/bin/../lib/gcc/powerpc-eabi/12.1.0/../../../../powerpc-eabi/lib\libstdc++.a(eh_alloc.o)
 .text._ZN9__gnu_cxx9__freeresEv
                0x0000000000000000       0x44 c:/devkitpro/devkitppc/bin/../lib/gcc/powerpc-eabi/12.1.0/../../../../powerpc-eabi/lib\libstdc++.a(eh_alloc.o)
 .text.__cxa_allocate_dependent_exception
                0x0000000000000000       0x54 c:/devkitpro/devkitppc/bin/../lib/gcc/powerpc-eabi/12.1.0/../../../../powerpc-eabi/lib\libstdc++.a(eh_alloc.o)
 .gcc_except_table.__cxa_allocate_dependent_exception
                0x0000000000000000        0x4 c:/devkitpro/devkitppc/bin/../lib/gcc/powerpc-eabi/12.1.0/../../../../powerpc-eabi/lib\libstdc++.a(eh_alloc.o)
 .text.__cxa_free_dependent_exception
                0x0000000000000000       0x50 c:/devkitpro/devkitppc/bin/../lib/gcc/powerpc-eabi/12.1.0/../../../../powerpc-eabi/lib\libstdc++.a(eh_alloc.o)
 .gcc_except_table.__cxa_free_dependent_exception
                0x0000000000000000        0x4 c:/devkitpro/devkitppc/bin/../lib/gcc/powerpc-eabi/12.1.0/../../../../powerpc-eabi/lib\libstdc++.a(eh_alloc.o)
 .text.startup._GLOBAL__sub_I__ZN9__gnu_cxx9__freeresEv
                0x0000000000000000       0x80 c:/devkitpro/devkitppc/bin/../lib/gcc/powerpc-eabi/12.1.0/../../../../powerpc-eabi/lib\libstdc++.a(eh_alloc.o)
 .ctors         0x0000000000000000        0x4 c:/devkitpro/devkitppc/bin/../lib/gcc/powerpc-eabi/12.1.0/../../../../powerpc-eabi/lib\libstdc++.a(eh_alloc.o)
 .text.exit._GLOBAL__sub_D__ZN9__gnu_cxx9__freeresEv
                0x0000000000000000       0x38 c:/devkitpro/devkitppc/bin/../lib/gcc/powerpc-eabi/12.1.0/../../../../powerpc-eabi/lib\libstdc++.a(eh_alloc.o)
 .gcc_except_table._GLOBAL__sub_D__ZN9__gnu_cxx9__freeresEv
                0x0000000000000000        0x4 c:/devkitpro/devkitppc/bin/../lib/gcc/powerpc-eabi/12.1.0/../../../../powerpc-eabi/lib\libstdc++.a(eh_alloc.o)
 .dtors         0x0000000000000000        0x4 c:/devkitpro/devkitppc/bin/../lib/gcc/powerpc-eabi/12.1.0/../../../../powerpc-eabi/lib\libstdc++.a(eh_alloc.o)
 .rodata._ZTSN9__gnu_cxx24__concurrence_lock_errorE
                0x0000000000000000       0x27 c:/devkitpro/devkitppc/bin/../lib/gcc/powerpc-eabi/12.1.0/../../../../powerpc-eabi/lib\libstdc++.a(eh_alloc.o)
 .rodata._ZTIN9__gnu_cxx24__concurrence_lock_errorE
                0x0000000000000000        0xc c:/devkitpro/devkitppc/bin/../lib/gcc/powerpc-eabi/12.1.0/../../../../powerpc-eabi/lib\libstdc++.a(eh_alloc.o)
 .rodata._ZTSN9__gnu_cxx26__concurrence_unlock_errorE
                0x0000000000000000       0x29 c:/devkitpro/devkitppc/bin/../lib/gcc/powerpc-eabi/12.1.0/../../../../powerpc-eabi/lib\libstdc++.a(eh_alloc.o)
 .rodata._ZTIN9__gnu_cxx26__concurrence_unlock_errorE
                0x0000000000000000        0xc c:/devkitpro/devkitppc/bin/../lib/gcc/powerpc-eabi/12.1.0/../../../../powerpc-eabi/lib\libstdc++.a(eh_alloc.o)
 .rodata._ZTVN9__gnu_cxx24__concurrence_lock_errorE
                0x0000000000000000       0x14 c:/devkitpro/devkitppc/bin/../lib/gcc/powerpc-eabi/12.1.0/../../../../powerpc-eabi/lib\libstdc++.a(eh_alloc.o)
 .rodata._ZTVN9__gnu_cxx26__concurrence_unlock_errorE
                0x0000000000000000       0x14 c:/devkitpro/devkitppc/bin/../lib/gcc/powerpc-eabi/12.1.0/../../../../powerpc-eabi/lib\libstdc++.a(eh_alloc.o)
 .eh_frame      0x0000000000000000      0x278 c:/devkitpro/devkitppc/bin/../lib/gcc/powerpc-eabi/12.1.0/../../../../powerpc-eabi/lib\libstdc++.a(eh_alloc.o)
 .text          0x0000000000000000        0x0 c:/devkitpro/devkitppc/bin/../lib/gcc/powerpc-eabi/12.1.0/../../../../powerpc-eabi/lib\libstdc++.a(eh_call.o)
 .data          0x0000000000000000        0x0 c:/devkitpro/devkitppc/bin/../lib/gcc/powerpc-eabi/12.1.0/../../../../powerpc-eabi/lib\libstdc++.a(eh_call.o)
 .bss           0x0000000000000000        0x0 c:/devkitpro/devkitppc/bin/../lib/gcc/powerpc-eabi/12.1.0/../../../../powerpc-eabi/lib\libstdc++.a(eh_call.o)
 .eh_frame      0x0000000000000000       0x34 c:/devkitpro/devkitppc/bin/../lib/gcc/powerpc-eabi/12.1.0/../../../../powerpc-eabi/lib\libstdc++.a(eh_call.o)
 .text          0x0000000000000000        0x0 c:/devkitpro/devkitppc/bin/../lib/gcc/powerpc-eabi/12.1.0/../../../../powerpc-eabi/lib\libstdc++.a(eh_catch.o)
 .data          0x0000000000000000        0x0 c:/devkitpro/devkitppc/bin/../lib/gcc/powerpc-eabi/12.1.0/../../../../powerpc-eabi/lib\libstdc++.a(eh_catch.o)
 .bss           0x0000000000000000        0x0 c:/devkitpro/devkitppc/bin/../lib/gcc/powerpc-eabi/12.1.0/../../../../powerpc-eabi/lib\libstdc++.a(eh_catch.o)
 .text.__cxa_get_exception_ptr
                0x0000000000000000        0x8 c:/devkitpro/devkitppc/bin/../lib/gcc/powerpc-eabi/12.1.0/../../../../powerpc-eabi/lib\libstdc++.a(eh_catch.o)
 .text.__cxa_end_catch
                0x0000000000000000       0xc0 c:/devkitpro/devkitppc/bin/../lib/gcc/powerpc-eabi/12.1.0/../../../../powerpc-eabi/lib\libstdc++.a(eh_catch.o)
 .text._ZSt18uncaught_exceptionv
                0x0000000000000000       0x2c c:/devkitpro/devkitppc/bin/../lib/gcc/powerpc-eabi/12.1.0/../../../../powerpc-eabi/lib\libstdc++.a(eh_catch.o)
 .text._ZSt19uncaught_exceptionsv
                0x0000000000000000       0x24 c:/devkitpro/devkitppc/bin/../lib/gcc/powerpc-eabi/12.1.0/../../../../powerpc-eabi/lib\libstdc++.a(eh_catch.o)
 .eh_frame      0x0000000000000000       0xc8 c:/devkitpro/devkitppc/bin/../lib/gcc/powerpc-eabi/12.1.0/../../../../powerpc-eabi/lib\libstdc++.a(eh_catch.o)
 .group         0x0000000000000000        0x8 c:/devkitpro/devkitppc/bin/../lib/gcc/powerpc-eabi/12.1.0/../../../../powerpc-eabi/lib\libstdc++.a(eh_exception.o)
 .group         0x0000000000000000        0xc c:/devkitpro/devkitppc/bin/../lib/gcc/powerpc-eabi/12.1.0/../../../../powerpc-eabi/lib\libstdc++.a(eh_exception.o)
 .group         0x0000000000000000        0x8 c:/devkitpro/devkitppc/bin/../lib/gcc/powerpc-eabi/12.1.0/../../../../powerpc-eabi/lib\libstdc++.a(eh_exception.o)
 .group         0x0000000000000000        0xc c:/devkitpro/devkitppc/bin/../lib/gcc/powerpc-eabi/12.1.0/../../../../powerpc-eabi/lib\libstdc++.a(eh_exception.o)
 .group         0x0000000000000000        0x8 c:/devkitpro/devkitppc/bin/../lib/gcc/powerpc-eabi/12.1.0/../../../../powerpc-eabi/lib\libstdc++.a(eh_exception.o)
 .group         0x0000000000000000        0xc c:/devkitpro/devkitppc/bin/../lib/gcc/powerpc-eabi/12.1.0/../../../../powerpc-eabi/lib\libstdc++.a(eh_exception.o)
 .group         0x0000000000000000        0x8 c:/devkitpro/devkitppc/bin/../lib/gcc/powerpc-eabi/12.1.0/../../../../powerpc-eabi/lib\libstdc++.a(eh_exception.o)
 .group         0x0000000000000000        0xc c:/devkitpro/devkitppc/bin/../lib/gcc/powerpc-eabi/12.1.0/../../../../powerpc-eabi/lib\libstdc++.a(eh_exception.o)
 .group         0x0000000000000000        0xc c:/devkitpro/devkitppc/bin/../lib/gcc/powerpc-eabi/12.1.0/../../../../powerpc-eabi/lib\libstdc++.a(eh_exception.o)
 .group         0x0000000000000000        0xc c:/devkitpro/devkitppc/bin/../lib/gcc/powerpc-eabi/12.1.0/../../../../powerpc-eabi/lib\libstdc++.a(eh_exception.o)
 .group         0x0000000000000000        0xc c:/devkitpro/devkitppc/bin/../lib/gcc/powerpc-eabi/12.1.0/../../../../powerpc-eabi/lib\libstdc++.a(eh_exception.o)
 .group         0x0000000000000000        0xc c:/devkitpro/devkitppc/bin/../lib/gcc/powerpc-eabi/12.1.0/../../../../powerpc-eabi/lib\libstdc++.a(eh_exception.o)
 .text          0x0000000000000000        0x0 c:/devkitpro/devkitppc/bin/../lib/gcc/powerpc-eabi/12.1.0/../../../../powerpc-eabi/lib\libstdc++.a(eh_exception.o)
 .data          0x0000000000000000        0x0 c:/devkitpro/devkitppc/bin/../lib/gcc/powerpc-eabi/12.1.0/../../../../powerpc-eabi/lib\libstdc++.a(eh_exception.o)
 .bss           0x0000000000000000        0x0 c:/devkitpro/devkitppc/bin/../lib/gcc/powerpc-eabi/12.1.0/../../../../powerpc-eabi/lib\libstdc++.a(eh_exception.o)
 .text._ZNSt13bad_exceptionD2Ev
                0x0000000000000000        0x4 c:/devkitpro/devkitppc/bin/../lib/gcc/powerpc-eabi/12.1.0/../../../../powerpc-eabi/lib\libstdc++.a(eh_exception.o)
 .rodata._ZNKSt13bad_exception4whatEv.str1.4
                0x0000000000000000       0x13 c:/devkitpro/devkitppc/bin/../lib/gcc/powerpc-eabi/12.1.0/../../../../powerpc-eabi/lib\libstdc++.a(eh_exception.o)
 .text._ZNKSt13bad_exception4whatEv
                0x0000000000000000        0xc c:/devkitpro/devkitppc/bin/../lib/gcc/powerpc-eabi/12.1.0/../../../../powerpc-eabi/lib\libstdc++.a(eh_exception.o)
 .text._ZNSt9exceptionD0Ev
                0x0000000000000000        0x8 c:/devkitpro/devkitppc/bin/../lib/gcc/powerpc-eabi/12.1.0/../../../../powerpc-eabi/lib\libstdc++.a(eh_exception.o)
 .text._ZNSt13bad_exceptionD0Ev
                0x0000000000000000        0x8 c:/devkitpro/devkitppc/bin/../lib/gcc/powerpc-eabi/12.1.0/../../../../powerpc-eabi/lib\libstdc++.a(eh_exception.o)
 .text._ZN10__cxxabiv115__forced_unwindD2Ev
                0x0000000000000000        0x4 c:/devkitpro/devkitppc/bin/../lib/gcc/powerpc-eabi/12.1.0/../../../../powerpc-eabi/lib\libstdc++.a(eh_exception.o)
 .text._ZN10__cxxabiv115__forced_unwindD0Ev
                0x0000000000000000        0x8 c:/devkitpro/devkitppc/bin/../lib/gcc/powerpc-eabi/12.1.0/../../../../powerpc-eabi/lib\libstdc++.a(eh_exception.o)
 .text._ZN10__cxxabiv119__foreign_exceptionD2Ev
                0x0000000000000000        0x4 c:/devkitpro/devkitppc/bin/../lib/gcc/powerpc-eabi/12.1.0/../../../../powerpc-eabi/lib\libstdc++.a(eh_exception.o)
 .text._ZN10__cxxabiv119__foreign_exceptionD0Ev
                0x0000000000000000        0x8 c:/devkitpro/devkitppc/bin/../lib/gcc/powerpc-eabi/12.1.0/../../../../powerpc-eabi/lib\libstdc++.a(eh_exception.o)
 .text._ZGTtNKSt9exceptionD1Ev
                0x0000000000000000        0x4 c:/devkitpro/devkitppc/bin/../lib/gcc/powerpc-eabi/12.1.0/../../../../powerpc-eabi/lib\libstdc++.a(eh_exception.o)
 .text._ZGTtNKSt13bad_exceptionD1Ev
                0x0000000000000000        0x4 c:/devkitpro/devkitppc/bin/../lib/gcc/powerpc-eabi/12.1.0/../../../../powerpc-eabi/lib\libstdc++.a(eh_exception.o)
 .rodata._ZTSSt13bad_exception
                0x0000000000000000       0x12 c:/devkitpro/devkitppc/bin/../lib/gcc/powerpc-eabi/12.1.0/../../../../powerpc-eabi/lib\libstdc++.a(eh_exception.o)
 .rodata._ZTISt13bad_exception
                0x0000000000000000        0xc c:/devkitpro/devkitppc/bin/../lib/gcc/powerpc-eabi/12.1.0/../../../../powerpc-eabi/lib\libstdc++.a(eh_exception.o)
 .rodata._ZTVSt9exception
                0x0000000000000000       0x14 c:/devkitpro/devkitppc/bin/../lib/gcc/powerpc-eabi/12.1.0/../../../../powerpc-eabi/lib\libstdc++.a(eh_exception.o)
 .rodata._ZTVSt13bad_exception
                0x0000000000000000       0x14 c:/devkitpro/devkitppc/bin/../lib/gcc/powerpc-eabi/12.1.0/../../../../powerpc-eabi/lib\libstdc++.a(eh_exception.o)
 .rodata._ZTVN10__cxxabiv115__forced_unwindE
                0x0000000000000000       0x14 c:/devkitpro/devkitppc/bin/../lib/gcc/powerpc-eabi/12.1.0/../../../../powerpc-eabi/lib\libstdc++.a(eh_exception.o)
 .rodata._ZTVN10__cxxabiv119__foreign_exceptionE
                0x0000000000000000       0x14 c:/devkitpro/devkitppc/bin/../lib/gcc/powerpc-eabi/12.1.0/../../../../powerpc-eabi/lib\libstdc++.a(eh_exception.o)
 .eh_frame      0x0000000000000000      0x104 c:/devkitpro/devkitppc/bin/../lib/gcc/powerpc-eabi/12.1.0/../../../../powerpc-eabi/lib\libstdc++.a(eh_exception.o)
 .text          0x0000000000000000        0x0 c:/devkitpro/devkitppc/bin/../lib/gcc/powerpc-eabi/12.1.0/../../../../powerpc-eabi/lib\libstdc++.a(eh_globals.o)
 .data          0x0000000000000000        0x0 c:/devkitpro/devkitppc/bin/../lib/gcc/powerpc-eabi/12.1.0/../../../../powerpc-eabi/lib\libstdc++.a(eh_globals.o)
 .bss           0x0000000000000000        0x0 c:/devkitpro/devkitppc/bin/../lib/gcc/powerpc-eabi/12.1.0/../../../../powerpc-eabi/lib\libstdc++.a(eh_globals.o)
 .text._ZL15eh_globals_dtorPv
                0x0000000000000000       0x68 c:/devkitpro/devkitppc/bin/../lib/gcc/powerpc-eabi/12.1.0/../../../../powerpc-eabi/lib\libstdc++.a(eh_globals.o)
 .text.__cxa_get_globals_fast
                0x0000000000000000       0x4c c:/devkitpro/devkitppc/bin/../lib/gcc/powerpc-eabi/12.1.0/../../../../powerpc-eabi/lib\libstdc++.a(eh_globals.o)
 .gcc_except_table.__cxa_get_globals_fast
                0x0000000000000000        0x4 c:/devkitpro/devkitppc/bin/../lib/gcc/powerpc-eabi/12.1.0/../../../../powerpc-eabi/lib\libstdc++.a(eh_globals.o)
 .text.startup._GLOBAL__sub_I___cxa_get_globals_fast
                0x0000000000000000       0x60 c:/devkitpro/devkitppc/bin/../lib/gcc/powerpc-eabi/12.1.0/../../../../powerpc-eabi/lib\libstdc++.a(eh_globals.o)
 .ctors         0x0000000000000000        0x4 c:/devkitpro/devkitppc/bin/../lib/gcc/powerpc-eabi/12.1.0/../../../../powerpc-eabi/lib\libstdc++.a(eh_globals.o)
 .text.exit._GLOBAL__sub_D___cxa_get_globals_fast
                0x0000000000000000       0x40 c:/devkitpro/devkitppc/bin/../lib/gcc/powerpc-eabi/12.1.0/../../../../powerpc-eabi/lib\libstdc++.a(eh_globals.o)
 .gcc_except_table._GLOBAL__sub_D___cxa_get_globals_fast
                0x0000000000000000        0x4 c:/devkitpro/devkitppc/bin/../lib/gcc/powerpc-eabi/12.1.0/../../../../powerpc-eabi/lib\libstdc++.a(eh_globals.o)
 .dtors         0x0000000000000000        0x4 c:/devkitpro/devkitppc/bin/../lib/gcc/powerpc-eabi/12.1.0/../../../../powerpc-eabi/lib\libstdc++.a(eh_globals.o)
 .eh_frame      0x0000000000000000      0x114 c:/devkitpro/devkitppc/bin/../lib/gcc/powerpc-eabi/12.1.0/../../../../powerpc-eabi/lib\libstdc++.a(eh_globals.o)
 .text          0x0000000000000000        0x0 c:/devkitpro/devkitppc/bin/../lib/gcc/powerpc-eabi/12.1.0/../../../../powerpc-eabi/lib\libstdc++.a(eh_term_handler.o)
 .data          0x0000000000000000        0x0 c:/devkitpro/devkitppc/bin/../lib/gcc/powerpc-eabi/12.1.0/../../../../powerpc-eabi/lib\libstdc++.a(eh_term_handler.o)
 .bss           0x0000000000000000        0x0 c:/devkitpro/devkitppc/bin/../lib/gcc/powerpc-eabi/12.1.0/../../../../powerpc-eabi/lib\libstdc++.a(eh_term_handler.o)
 .group         0x0000000000000000        0x8 c:/devkitpro/devkitppc/bin/../lib/gcc/powerpc-eabi/12.1.0/../../../../powerpc-eabi/lib\libstdc++.a(bad_alloc.o)
 .group         0x0000000000000000        0xc c:/devkitpro/devkitppc/bin/../lib/gcc/powerpc-eabi/12.1.0/../../../../powerpc-eabi/lib\libstdc++.a(bad_alloc.o)
 .group         0x0000000000000000        0xc c:/devkitpro/devkitppc/bin/../lib/gcc/powerpc-eabi/12.1.0/../../../../powerpc-eabi/lib\libstdc++.a(bad_alloc.o)
 .text          0x0000000000000000        0x0 c:/devkitpro/devkitppc/bin/../lib/gcc/powerpc-eabi/12.1.0/../../../../powerpc-eabi/lib\libstdc++.a(bad_alloc.o)
 .data          0x0000000000000000        0x0 c:/devkitpro/devkitppc/bin/../lib/gcc/powerpc-eabi/12.1.0/../../../../powerpc-eabi/lib\libstdc++.a(bad_alloc.o)
 .bss           0x0000000000000000        0x0 c:/devkitpro/devkitppc/bin/../lib/gcc/powerpc-eabi/12.1.0/../../../../powerpc-eabi/lib\libstdc++.a(bad_alloc.o)
 .eh_frame      0x0000000000000000       0x64 c:/devkitpro/devkitppc/bin/../lib/gcc/powerpc-eabi/12.1.0/../../../../powerpc-eabi/lib\libstdc++.a(bad_alloc.o)
 .text          0x0000000000000000        0x0 c:/devkitpro/devkitppc/bin/../lib/gcc/powerpc-eabi/12.1.0/../../../../powerpc-eabi/lib\libm.a(lib_a-w_atan2.o)
 .data          0x0000000000000000        0x0 c:/devkitpro/devkitppc/bin/../lib/gcc/powerpc-eabi/12.1.0/../../../../powerpc-eabi/lib\libm.a(lib_a-w_atan2.o)
 .bss           0x0000000000000000        0x0 c:/devkitpro/devkitppc/bin/../lib/gcc/powerpc-eabi/12.1.0/../../../../powerpc-eabi/lib\libm.a(lib_a-w_atan2.o)
 .eh_frame      0x0000000000000000       0x28 c:/devkitpro/devkitppc/bin/../lib/gcc/powerpc-eabi/12.1.0/../../../../powerpc-eabi/lib\libm.a(lib_a-w_atan2.o)
 .text          0x0000000000000000        0x0 c:/devkitpro/devkitppc/bin/../lib/gcc/powerpc-eabi/12.1.0/../../../../powerpc-eabi/lib\libm.a(lib_a-wf_sincos.o)
 .data          0x0000000000000000        0x0 c:/devkitpro/devkitppc/bin/../lib/gcc/powerpc-eabi/12.1.0/../../../../powerpc-eabi/lib\libm.a(lib_a-wf_sincos.o)
 .bss           0x0000000000000000        0x0 c:/devkitpro/devkitppc/bin/../lib/gcc/powerpc-eabi/12.1.0/../../../../powerpc-eabi/lib\libm.a(lib_a-wf_sincos.o)
 .eh_frame      0x0000000000000000       0x40 c:/devkitpro/devkitppc/bin/../lib/gcc/powerpc-eabi/12.1.0/../../../../powerpc-eabi/lib\libm.a(lib_a-wf_sincos.o)
 .text          0x0000000000000000        0x0 c:/devkitpro/devkitppc/bin/../lib/gcc/powerpc-eabi/12.1.0/../../../../powerpc-eabi/lib\libm.a(lib_a-wf_sqrt.o)
 .data          0x0000000000000000        0x0 c:/devkitpro/devkitppc/bin/../lib/gcc/powerpc-eabi/12.1.0/../../../../powerpc-eabi/lib\libm.a(lib_a-wf_sqrt.o)
 .bss           0x0000000000000000        0x0 c:/devkitpro/devkitppc/bin/../lib/gcc/powerpc-eabi/12.1.0/../../../../powerpc-eabi/lib\libm.a(lib_a-wf_sqrt.o)
 .eh_frame      0x0000000000000000       0x54 c:/devkitpro/devkitppc/bin/../lib/gcc/powerpc-eabi/12.1.0/../../../../powerpc-eabi/lib\libm.a(lib_a-wf_sqrt.o)
 .text          0x0000000000000000        0x0 c:/devkitpro/devkitppc/bin/../lib/gcc/powerpc-eabi/12.1.0/../../../../powerpc-eabi/lib\libm.a(lib_a-w_sqrt.o)
 .data          0x0000000000000000        0x0 c:/devkitpro/devkitppc/bin/../lib/gcc/powerpc-eabi/12.1.0/../../../../powerpc-eabi/lib\libm.a(lib_a-w_sqrt.o)
 .bss           0x0000000000000000        0x0 c:/devkitpro/devkitppc/bin/../lib/gcc/powerpc-eabi/12.1.0/../../../../powerpc-eabi/lib\libm.a(lib_a-w_sqrt.o)
 .eh_frame      0x0000000000000000       0x54 c:/devkitpro/devkitppc/bin/../lib/gcc/powerpc-eabi/12.1.0/../../../../powerpc-eabi/lib\libm.a(lib_a-w_sqrt.o)
 .text          0x0000000000000000        0x0 c:/devkitpro/devkitppc/bin/../lib/gcc/powerpc-eabi/12.1.0/../../../../powerpc-eabi/lib\libm.a(lib_a-e_atan2.o)
 .data          0x0000000000000000        0x0 c:/devkitpro/devkitppc/bin/../lib/gcc/powerpc-eabi/12.1.0/../../../../powerpc-eabi/lib\libm.a(lib_a-e_atan2.o)
 .bss           0x0000000000000000        0x0 c:/devkitpro/devkitppc/bin/../lib/gcc/powerpc-eabi/12.1.0/../../../../powerpc-eabi/lib\libm.a(lib_a-e_atan2.o)
 .eh_frame      0x0000000000000000       0x7c c:/devkitpro/devkitppc/bin/../lib/gcc/powerpc-eabi/12.1.0/../../../../powerpc-eabi/lib\libm.a(lib_a-e_atan2.o)
 .text          0x0000000000000000        0x0 c:/devkitpro/devkitppc/bin/../lib/gcc/powerpc-eabi/12.1.0/../../../../powerpc-eabi/lib\libm.a(lib_a-ef_sqrt.o)
 .data          0x0000000000000000        0x0 c:/devkitpro/devkitppc/bin/../lib/gcc/powerpc-eabi/12.1.0/../../../../powerpc-eabi/lib\libm.a(lib_a-ef_sqrt.o)
 .bss           0x0000000000000000        0x0 c:/devkitpro/devkitppc/bin/../lib/gcc/powerpc-eabi/12.1.0/../../../../powerpc-eabi/lib\libm.a(lib_a-ef_sqrt.o)
 .eh_frame      0x0000000000000000       0x3c c:/devkitpro/devkitppc/bin/../lib/gcc/powerpc-eabi/12.1.0/../../../../powerpc-eabi/lib\libm.a(lib_a-ef_sqrt.o)
 .text          0x0000000000000000        0x0 c:/devkitpro/devkitppc/bin/../lib/gcc/powerpc-eabi/12.1.0/../../../../powerpc-eabi/lib\libm.a(lib_a-e_sqrt.o)
 .data          0x0000000000000000        0x0 c:/devkitpro/devkitppc/bin/../lib/gcc/powerpc-eabi/12.1.0/../../../../powerpc-eabi/lib\libm.a(lib_a-e_sqrt.o)
 .bss           0x0000000000000000        0x0 c:/devkitpro/devkitppc/bin/../lib/gcc/powerpc-eabi/12.1.0/../../../../powerpc-eabi/lib\libm.a(lib_a-e_sqrt.o)
 .eh_frame      0x0000000000000000       0x54 c:/devkitpro/devkitppc/bin/../lib/gcc/powerpc-eabi/12.1.0/../../../../powerpc-eabi/lib\libm.a(lib_a-e_sqrt.o)
 .text          0x0000000000000000        0x0 c:/devkitpro/devkitppc/bin/../lib/gcc/powerpc-eabi/12.1.0/../../../../powerpc-eabi/lib\libm.a(lib_a-s_atan.o)
 .data          0x0000000000000000        0x0 c:/devkitpro/devkitppc/bin/../lib/gcc/powerpc-eabi/12.1.0/../../../../powerpc-eabi/lib\libm.a(lib_a-s_atan.o)
 .bss           0x0000000000000000        0x0 c:/devkitpro/devkitppc/bin/../lib/gcc/powerpc-eabi/12.1.0/../../../../powerpc-eabi/lib\libm.a(lib_a-s_atan.o)
 .eh_frame      0x0000000000000000       0x78 c:/devkitpro/devkitppc/bin/../lib/gcc/powerpc-eabi/12.1.0/../../../../powerpc-eabi/lib\libm.a(lib_a-s_atan.o)
 .text          0x0000000000000000        0x0 c:/devkitpro/devkitppc/bin/../lib/gcc/powerpc-eabi/12.1.0/../../../../powerpc-eabi/lib\libm.a(lib_a-s_fabs.o)
 .data          0x0000000000000000        0x0 c:/devkitpro/devkitppc/bin/../lib/gcc/powerpc-eabi/12.1.0/../../../../powerpc-eabi/lib\libm.a(lib_a-s_fabs.o)
 .bss           0x0000000000000000        0x0 c:/devkitpro/devkitppc/bin/../lib/gcc/powerpc-eabi/12.1.0/../../../../powerpc-eabi/lib\libm.a(lib_a-s_fabs.o)
 .eh_frame      0x0000000000000000       0x2c c:/devkitpro/devkitppc/bin/../lib/gcc/powerpc-eabi/12.1.0/../../../../powerpc-eabi/lib\libm.a(lib_a-s_fabs.o)
 .text          0x0000000000000000        0x0 c:/devkitpro/devkitppc/bin/../lib/gcc/powerpc-eabi/12.1.0/../../../../powerpc-eabi/lib\libm.a(lib_a-sf_cos.o)
 .data          0x0000000000000000        0x0 c:/devkitpro/devkitppc/bin/../lib/gcc/powerpc-eabi/12.1.0/../../../../powerpc-eabi/lib\libm.a(lib_a-sf_cos.o)
 .bss           0x0000000000000000        0x0 c:/devkitpro/devkitppc/bin/../lib/gcc/powerpc-eabi/12.1.0/../../../../powerpc-eabi/lib\libm.a(lib_a-sf_cos.o)
 .eh_frame      0x0000000000000000       0x54 c:/devkitpro/devkitppc/bin/../lib/gcc/powerpc-eabi/12.1.0/../../../../powerpc-eabi/lib\libm.a(lib_a-sf_cos.o)
 .text          0x0000000000000000        0x0 c:/devkitpro/devkitppc/bin/../lib/gcc/powerpc-eabi/12.1.0/../../../../powerpc-eabi/lib\libm.a(lib_a-sf_sin.o)
 .data          0x0000000000000000        0x0 c:/devkitpro/devkitppc/bin/../lib/gcc/powerpc-eabi/12.1.0/../../../../powerpc-eabi/lib\libm.a(lib_a-sf_sin.o)
 .bss           0x0000000000000000        0x0 c:/devkitpro/devkitppc/bin/../lib/gcc/powerpc-eabi/12.1.0/../../../../powerpc-eabi/lib\libm.a(lib_a-sf_sin.o)
 .eh_frame      0x0000000000000000       0x54 c:/devkitpro/devkitppc/bin/../lib/gcc/powerpc-eabi/12.1.0/../../../../powerpc-eabi/lib\libm.a(lib_a-sf_sin.o)
 .text          0x0000000000000000        0x0 c:/devkitpro/devkitppc/bin/../lib/gcc/powerpc-eabi/12.1.0/../../../../powerpc-eabi/lib\libm.a(lib_a-ef_rem_pio2.o)
 .data          0x0000000000000000        0x0 c:/devkitpro/devkitppc/bin/../lib/gcc/powerpc-eabi/12.1.0/../../../../powerpc-eabi/lib\libm.a(lib_a-ef_rem_pio2.o)
 .bss           0x0000000000000000        0x0 c:/devkitpro/devkitppc/bin/../lib/gcc/powerpc-eabi/12.1.0/../../../../powerpc-eabi/lib\libm.a(lib_a-ef_rem_pio2.o)
 .eh_frame      0x0000000000000000       0x80 c:/devkitpro/devkitppc/bin/../lib/gcc/powerpc-eabi/12.1.0/../../../../powerpc-eabi/lib\libm.a(lib_a-ef_rem_pio2.o)
 .text          0x0000000000000000        0x0 c:/devkitpro/devkitppc/bin/../lib/gcc/powerpc-eabi/12.1.0/../../../../powerpc-eabi/lib\libm.a(lib_a-kf_cos.o)
 .data          0x0000000000000000        0x0 c:/devkitpro/devkitppc/bin/../lib/gcc/powerpc-eabi/12.1.0/../../../../powerpc-eabi/lib\libm.a(lib_a-kf_cos.o)
 .bss           0x0000000000000000        0x0 c:/devkitpro/devkitppc/bin/../lib/gcc/powerpc-eabi/12.1.0/../../../../powerpc-eabi/lib\libm.a(lib_a-kf_cos.o)
 .eh_frame      0x0000000000000000       0x38 c:/devkitpro/devkitppc/bin/../lib/gcc/powerpc-eabi/12.1.0/../../../../powerpc-eabi/lib\libm.a(lib_a-kf_cos.o)
 .text          0x0000000000000000        0x0 c:/devkitpro/devkitppc/bin/../lib/gcc/powerpc-eabi/12.1.0/../../../../powerpc-eabi/lib\libm.a(lib_a-kf_rem_pio2.o)
 .data          0x0000000000000000        0x0 c:/devkitpro/devkitppc/bin/../lib/gcc/powerpc-eabi/12.1.0/../../../../powerpc-eabi/lib\libm.a(lib_a-kf_rem_pio2.o)
 .bss           0x0000000000000000        0x0 c:/devkitpro/devkitppc/bin/../lib/gcc/powerpc-eabi/12.1.0/../../../../powerpc-eabi/lib\libm.a(lib_a-kf_rem_pio2.o)
 .eh_frame      0x0000000000000000       0x80 c:/devkitpro/devkitppc/bin/../lib/gcc/powerpc-eabi/12.1.0/../../../../powerpc-eabi/lib\libm.a(lib_a-kf_rem_pio2.o)
 .text          0x0000000000000000        0x0 c:/devkitpro/devkitppc/bin/../lib/gcc/powerpc-eabi/12.1.0/../../../../powerpc-eabi/lib\libm.a(lib_a-kf_sin.o)
 .data          0x0000000000000000        0x0 c:/devkitpro/devkitppc/bin/../lib/gcc/powerpc-eabi/12.1.0/../../../../powerpc-eabi/lib\libm.a(lib_a-kf_sin.o)
 .bss           0x0000000000000000        0x0 c:/devkitpro/devkitppc/bin/../lib/gcc/powerpc-eabi/12.1.0/../../../../powerpc-eabi/lib\libm.a(lib_a-kf_sin.o)
 .eh_frame      0x0000000000000000       0x34 c:/devkitpro/devkitppc/bin/../lib/gcc/powerpc-eabi/12.1.0/../../../../powerpc-eabi/lib\libm.a(lib_a-kf_sin.o)
 .text          0x0000000000000000        0x0 c:/devkitpro/devkitppc/bin/../lib/gcc/powerpc-eabi/12.1.0/../../../../powerpc-eabi/lib\libm.a(lib_a-sf_fabs.o)
 .data          0x0000000000000000        0x0 c:/devkitpro/devkitppc/bin/../lib/gcc/powerpc-eabi/12.1.0/../../../../powerpc-eabi/lib\libm.a(lib_a-sf_fabs.o)
 .bss           0x0000000000000000        0x0 c:/devkitpro/devkitppc/bin/../lib/gcc/powerpc-eabi/12.1.0/../../../../powerpc-eabi/lib\libm.a(lib_a-sf_fabs.o)
 .eh_frame      0x0000000000000000       0x2c c:/devkitpro/devkitppc/bin/../lib/gcc/powerpc-eabi/12.1.0/../../../../powerpc-eabi/lib\libm.a(lib_a-sf_fabs.o)
 .text          0x0000000000000000        0x0 c:/devkitpro/devkitppc/bin/../lib/gcc/powerpc-eabi/12.1.0/../../../../powerpc-eabi/lib\libm.a(lib_a-sf_floor.o)
 .data          0x0000000000000000        0x0 c:/devkitpro/devkitppc/bin/../lib/gcc/powerpc-eabi/12.1.0/../../../../powerpc-eabi/lib\libm.a(lib_a-sf_floor.o)
 .bss           0x0000000000000000        0x0 c:/devkitpro/devkitppc/bin/../lib/gcc/powerpc-eabi/12.1.0/../../../../powerpc-eabi/lib\libm.a(lib_a-sf_floor.o)
 .eh_frame      0x0000000000000000       0x34 c:/devkitpro/devkitppc/bin/../lib/gcc/powerpc-eabi/12.1.0/../../../../powerpc-eabi/lib\libm.a(lib_a-sf_floor.o)
 .text          0x0000000000000000        0x0 c:/devkitpro/devkitppc/bin/../lib/gcc/powerpc-eabi/12.1.0/../../../../powerpc-eabi/lib\libm.a(lib_a-sf_scalbn.o)
 .data          0x0000000000000000        0x0 c:/devkitpro/devkitppc/bin/../lib/gcc/powerpc-eabi/12.1.0/../../../../powerpc-eabi/lib\libm.a(lib_a-sf_scalbn.o)
 .bss           0x0000000000000000        0x0 c:/devkitpro/devkitppc/bin/../lib/gcc/powerpc-eabi/12.1.0/../../../../powerpc-eabi/lib\libm.a(lib_a-sf_scalbn.o)
 .eh_frame      0x0000000000000000       0x34 c:/devkitpro/devkitppc/bin/../lib/gcc/powerpc-eabi/12.1.0/../../../../powerpc-eabi/lib\libm.a(lib_a-sf_scalbn.o)
 .text          0x0000000000000000        0x0 c:/devkitpro/devkitppc/bin/../lib/gcc/powerpc-eabi/12.1.0\libgcc.a(gthr-dkp.o)
 .data          0x0000000000000000        0x0 c:/devkitpro/devkitppc/bin/../lib/gcc/powerpc-eabi/12.1.0\libgcc.a(gthr-dkp.o)
 .bss           0x0000000000000000        0x0 c:/devkitpro/devkitppc/bin/../lib/gcc/powerpc-eabi/12.1.0\libgcc.a(gthr-dkp.o)
 .text.__gthread_create
                0x0000000000000000       0x1c c:/devkitpro/devkitppc/bin/../lib/gcc/powerpc-eabi/12.1.0\libgcc.a(gthr-dkp.o)
 .text.__gthread_join
                0x0000000000000000       0x1c c:/devkitpro/devkitppc/bin/../lib/gcc/powerpc-eabi/12.1.0\libgcc.a(gthr-dkp.o)
 .text.__gthread_detach
                0x0000000000000000       0x1c c:/devkitpro/devkitppc/bin/../lib/gcc/powerpc-eabi/12.1.0\libgcc.a(gthr-dkp.o)
 .text.__gthread_equal
                0x0000000000000000       0x1c c:/devkitpro/devkitppc/bin/../lib/gcc/powerpc-eabi/12.1.0\libgcc.a(gthr-dkp.o)
 .text.__gthread_self
                0x0000000000000000       0x1c c:/devkitpro/devkitppc/bin/../lib/gcc/powerpc-eabi/12.1.0\libgcc.a(gthr-dkp.o)
 .text.__gthread_yield
                0x0000000000000000       0x1c c:/devkitpro/devkitppc/bin/../lib/gcc/powerpc-eabi/12.1.0\libgcc.a(gthr-dkp.o)
 .text.__gthread_key_create
                0x0000000000000000       0x1c c:/devkitpro/devkitppc/bin/../lib/gcc/powerpc-eabi/12.1.0\libgcc.a(gthr-dkp.o)
 .text.__gthread_key_delete
                0x0000000000000000       0x44 c:/devkitpro/devkitppc/bin/../lib/gcc/powerpc-eabi/12.1.0\libgcc.a(gthr-dkp.o)
 .text.__gthread_mutex_destroy
                0x0000000000000000       0x1c c:/devkitpro/devkitppc/bin/../lib/gcc/powerpc-eabi/12.1.0\libgcc.a(gthr-dkp.o)
 .text.__gthread_mutex_trylock
                0x0000000000000000       0x1c c:/devkitpro/devkitppc/bin/../lib/gcc/powerpc-eabi/12.1.0\libgcc.a(gthr-dkp.o)
 .text.__gthread_recursive_mutex_trylock
                0x0000000000000000       0x1c c:/devkitpro/devkitppc/bin/../lib/gcc/powerpc-eabi/12.1.0\libgcc.a(gthr-dkp.o)
 .text.__gthread_recursive_mutex_destroy
                0x0000000000000000       0x1c c:/devkitpro/devkitppc/bin/../lib/gcc/powerpc-eabi/12.1.0\libgcc.a(gthr-dkp.o)
 .text.__gthread_cond_signal
                0x0000000000000000       0x1c c:/devkitpro/devkitppc/bin/../lib/gcc/powerpc-eabi/12.1.0\libgcc.a(gthr-dkp.o)
 .text.__gthread_cond_wait
                0x0000000000000000       0x1c c:/devkitpro/devkitppc/bin/../lib/gcc/powerpc-eabi/12.1.0\libgcc.a(gthr-dkp.o)
 .text.__gthread_cond_timedwait
                0x0000000000000000       0x1c c:/devkitpro/devkitppc/bin/../lib/gcc/powerpc-eabi/12.1.0\libgcc.a(gthr-dkp.o)
 .text.__gthread_cond_destroy
                0x0000000000000000       0x1c c:/devkitpro/devkitppc/bin/../lib/gcc/powerpc-eabi/12.1.0\libgcc.a(gthr-dkp.o)
 .eh_frame      0x0000000000000000      0x27c c:/devkitpro/devkitppc/bin/../lib/gcc/powerpc-eabi/12.1.0\libgcc.a(gthr-dkp.o)
 .data          0x0000000000000000        0x0 c:/devkitpro/devkitppc/bin/../lib/gcc/powerpc-eabi/12.1.0\libgcc.a(crtsavfpr.o)
 .bss           0x0000000000000000        0x0 c:/devkitpro/devkitppc/bin/../lib/gcc/powerpc-eabi/12.1.0\libgcc.a(crtsavfpr.o)
 .eh_frame      0x0000000000000000       0x28 c:/devkitpro/devkitppc/bin/../lib/gcc/powerpc-eabi/12.1.0\libgcc.a(crtsavfpr.o)
 .data          0x0000000000000000        0x0 c:/devkitpro/devkitppc/bin/../lib/gcc/powerpc-eabi/12.1.0\libgcc.a(crtresxfpr.o)
 .bss           0x0000000000000000        0x0 c:/devkitpro/devkitppc/bin/../lib/gcc/powerpc-eabi/12.1.0\libgcc.a(crtresxfpr.o)
 .eh_frame      0x0000000000000000       0x7c c:/devkitpro/devkitppc/bin/../lib/gcc/powerpc-eabi/12.1.0\libgcc.a(crtresxfpr.o)
 .data          0x0000000000000000        0x0 c:/devkitpro/devkitppc/bin/../lib/gcc/powerpc-eabi/12.1.0\libgcc.a(crtresxgpr.o)
 .bss           0x0000000000000000        0x0 c:/devkitpro/devkitppc/bin/../lib/gcc/powerpc-eabi/12.1.0\libgcc.a(crtresxgpr.o)
 .eh_frame      0x0000000000000000       0x7c c:/devkitpro/devkitppc/bin/../lib/gcc/powerpc-eabi/12.1.0\libgcc.a(crtresxgpr.o)
 .text          0x0000000000000000        0x0 c:/devkitpro/devkitppc/bin/../lib/gcc/powerpc-eabi/12.1.0\libgcc.a(unwind-dw2.o)
 .data          0x0000000000000000        0x0 c:/devkitpro/devkitppc/bin/../lib/gcc/powerpc-eabi/12.1.0\libgcc.a(unwind-dw2.o)
 .bss           0x0000000000000000        0x0 c:/devkitpro/devkitppc/bin/../lib/gcc/powerpc-eabi/12.1.0\libgcc.a(unwind-dw2.o)
 .text._Unwind_GetGR
                0x0000000000000000       0x60 c:/devkitpro/devkitppc/bin/../lib/gcc/powerpc-eabi/12.1.0\libgcc.a(unwind-dw2.o)
 .text._Unwind_GetCFA
                0x0000000000000000        0x8 c:/devkitpro/devkitppc/bin/../lib/gcc/powerpc-eabi/12.1.0\libgcc.a(unwind-dw2.o)
 .text._Unwind_GetIP
                0x0000000000000000        0x8 c:/devkitpro/devkitppc/bin/../lib/gcc/powerpc-eabi/12.1.0\libgcc.a(unwind-dw2.o)
 .text._Unwind_FindEnclosingFunction
                0x0000000000000000       0x34 c:/devkitpro/devkitppc/bin/../lib/gcc/powerpc-eabi/12.1.0\libgcc.a(unwind-dw2.o)
 .text.__frame_state_for
                0x0000000000000000      0x110 c:/devkitpro/devkitppc/bin/../lib/gcc/powerpc-eabi/12.1.0\libgcc.a(unwind-dw2.o)
 .text._Unwind_ForcedUnwind
                0x0000000000000000      0x1dc c:/devkitpro/devkitppc/bin/../lib/gcc/powerpc-eabi/12.1.0\libgcc.a(unwind-dw2.o)
 .text._Unwind_Resume_or_Rethrow
                0x0000000000000000      0x1e0 c:/devkitpro/devkitppc/bin/../lib/gcc/powerpc-eabi/12.1.0\libgcc.a(unwind-dw2.o)
 .text._Unwind_DeleteException
                0x0000000000000000       0x1c c:/devkitpro/devkitppc/bin/../lib/gcc/powerpc-eabi/12.1.0\libgcc.a(unwind-dw2.o)
 .text._Unwind_Backtrace
                0x0000000000000000      0x24c c:/devkitpro/devkitppc/bin/../lib/gcc/powerpc-eabi/12.1.0\libgcc.a(unwind-dw2.o)
 .eh_frame      0x0000000000000000      0x79c c:/devkitpro/devkitppc/bin/../lib/gcc/powerpc-eabi/12.1.0\libgcc.a(unwind-dw2.o)
 .text          0x0000000000000000        0x0 c:/devkitpro/devkitppc/bin/../lib/gcc/powerpc-eabi/12.1.0\libgcc.a(unwind-dw2-fde.o)
 .data          0x0000000000000000        0x0 c:/devkitpro/devkitppc/bin/../lib/gcc/powerpc-eabi/12.1.0\libgcc.a(unwind-dw2-fde.o)
 .bss           0x0000000000000000        0x0 c:/devkitpro/devkitppc/bin/../lib/gcc/powerpc-eabi/12.1.0\libgcc.a(unwind-dw2-fde.o)
 .text.__deregister_frame_info_bases.part.0
                0x0000000000000000      0x15c c:/devkitpro/devkitppc/bin/../lib/gcc/powerpc-eabi/12.1.0\libgcc.a(unwind-dw2-fde.o)
 .text.__register_frame_info_bases
                0x0000000000000000       0x98 c:/devkitpro/devkitppc/bin/../lib/gcc/powerpc-eabi/12.1.0\libgcc.a(unwind-dw2-fde.o)
 .text.__register_frame_info
                0x0000000000000000       0x9c c:/devkitpro/devkitppc/bin/../lib/gcc/powerpc-eabi/12.1.0\libgcc.a(unwind-dw2-fde.o)
 .text.__register_frame
                0x0000000000000000       0xa0 c:/devkitpro/devkitppc/bin/../lib/gcc/powerpc-eabi/12.1.0\libgcc.a(unwind-dw2-fde.o)
 .text.__register_frame_info_table_bases
                0x0000000000000000       0x84 c:/devkitpro/devkitppc/bin/../lib/gcc/powerpc-eabi/12.1.0\libgcc.a(unwind-dw2-fde.o)
 .text.__register_frame_info_table
                0x0000000000000000       0x88 c:/devkitpro/devkitppc/bin/../lib/gcc/powerpc-eabi/12.1.0\libgcc.a(unwind-dw2-fde.o)
 .text.__register_frame_table
                0x0000000000000000       0x94 c:/devkitpro/devkitppc/bin/../lib/gcc/powerpc-eabi/12.1.0\libgcc.a(unwind-dw2-fde.o)
 .text.__deregister_frame_info_bases
                0x0000000000000000       0x20 c:/devkitpro/devkitppc/bin/../lib/gcc/powerpc-eabi/12.1.0\libgcc.a(unwind-dw2-fde.o)
 .text.__deregister_frame_info
                0x0000000000000000       0x20 c:/devkitpro/devkitppc/bin/../lib/gcc/powerpc-eabi/12.1.0\libgcc.a(unwind-dw2-fde.o)
 .text.__deregister_frame
                0x0000000000000000       0x2c c:/devkitpro/devkitppc/bin/../lib/gcc/powerpc-eabi/12.1.0\libgcc.a(unwind-dw2-fde.o)
 .eh_frame      0x0000000000000000      0x7c4 c:/devkitpro/devkitppc/bin/../lib/gcc/powerpc-eabi/12.1.0\libgcc.a(unwind-dw2-fde.o)
 .text          0x0000000000000000        0x0 c:/devkitpro/devkitppc/bin/../lib/gcc/powerpc-eabi/12.1.0/../../../../powerpc-eabi/lib\libsysbase.a(abort.o)
 .data          0x0000000000000000        0x0 c:/devkitpro/devkitppc/bin/../lib/gcc/powerpc-eabi/12.1.0/../../../../powerpc-eabi/lib\libsysbase.a(abort.o)
 .bss           0x0000000000000000        0x0 c:/devkitpro/devkitppc/bin/../lib/gcc/powerpc-eabi/12.1.0/../../../../powerpc-eabi/lib\libsysbase.a(abort.o)
 .eh_frame      0x0000000000000000       0x2c c:/devkitpro/devkitppc/bin/../lib/gcc/powerpc-eabi/12.1.0/../../../../powerpc-eabi/lib\libsysbase.a(abort.o)
 .text          0x0000000000000000        0x0 c:/devkitpro/devkitppc/bin/../lib/gcc/powerpc-eabi/12.1.0/../../../../powerpc-eabi/lib\libsysbase.a(_exit.o)
 .data          0x0000000000000000        0x0 c:/devkitpro/devkitppc/bin/../lib/gcc/powerpc-eabi/12.1.0/../../../../powerpc-eabi/lib\libsysbase.a(_exit.o)
 .bss           0x0000000000000000        0x0 c:/devkitpro/devkitppc/bin/../lib/gcc/powerpc-eabi/12.1.0/../../../../powerpc-eabi/lib\libsysbase.a(_exit.o)
 .eh_frame      0x0000000000000000       0x34 c:/devkitpro/devkitppc/bin/../lib/gcc/powerpc-eabi/12.1.0/../../../../powerpc-eabi/lib\libsysbase.a(_exit.o)
 .text          0x0000000000000000        0x0 c:/devkitpro/devkitppc/bin/../lib/gcc/powerpc-eabi/12.1.0/../../../../powerpc-eabi/lib\libc.a(lib_a-errno.o)
 .data          0x0000000000000000        0x0 c:/devkitpro/devkitppc/bin/../lib/gcc/powerpc-eabi/12.1.0/../../../../powerpc-eabi/lib\libc.a(lib_a-errno.o)
 .bss           0x0000000000000000        0x0 c:/devkitpro/devkitppc/bin/../lib/gcc/powerpc-eabi/12.1.0/../../../../powerpc-eabi/lib\libc.a(lib_a-errno.o)
 .eh_frame      0x0000000000000000       0x28 c:/devkitpro/devkitppc/bin/../lib/gcc/powerpc-eabi/12.1.0/../../../../powerpc-eabi/lib\libc.a(lib_a-errno.o)
 .text          0x0000000000000000        0x0 c:/devkitpro/devkitppc/bin/../lib/gcc/powerpc-eabi/12.1.0/../../../../powerpc-eabi/lib\libc.a(lib_a-impure.o)
 .data          0x0000000000000000        0x0 c:/devkitpro/devkitppc/bin/../lib/gcc/powerpc-eabi/12.1.0/../../../../powerpc-eabi/lib\libc.a(lib_a-impure.o)
 .bss           0x0000000000000000        0x0 c:/devkitpro/devkitppc/bin/../lib/gcc/powerpc-eabi/12.1.0/../../../../powerpc-eabi/lib\libc.a(lib_a-impure.o)
 .text          0x0000000000000000        0x0 c:/devkitpro/devkitppc/bin/../lib/gcc/powerpc-eabi/12.1.0/../../../../powerpc-eabi/lib\libc.a(lib_a-malloc.o)
 .data          0x0000000000000000        0x0 c:/devkitpro/devkitppc/bin/../lib/gcc/powerpc-eabi/12.1.0/../../../../powerpc-eabi/lib\libc.a(lib_a-malloc.o)
 .bss           0x0000000000000000        0x0 c:/devkitpro/devkitppc/bin/../lib/gcc/powerpc-eabi/12.1.0/../../../../powerpc-eabi/lib\libc.a(lib_a-malloc.o)
 .eh_frame      0x0000000000000000       0x3c c:/devkitpro/devkitppc/bin/../lib/gcc/powerpc-eabi/12.1.0/../../../../powerpc-eabi/lib\libc.a(lib_a-malloc.o)
 .text          0x0000000000000000        0x0 c:/devkitpro/devkitppc/bin/../lib/gcc/powerpc-eabi/12.1.0/../../../../powerpc-eabi/lib\libc.a(lib_a-mallocr.o)
 .data          0x0000000000000000        0x0 c:/devkitpro/devkitppc/bin/../lib/gcc/powerpc-eabi/12.1.0/../../../../powerpc-eabi/lib\libc.a(lib_a-mallocr.o)
 .bss           0x0000000000000000        0x0 c:/devkitpro/devkitppc/bin/../lib/gcc/powerpc-eabi/12.1.0/../../../../powerpc-eabi/lib\libc.a(lib_a-mallocr.o)
 .eh_frame      0x0000000000000000       0xf8 c:/devkitpro/devkitppc/bin/../lib/gcc/powerpc-eabi/12.1.0/../../../../powerpc-eabi/lib\libc.a(lib_a-mallocr.o)
 .text          0x0000000000000000        0x0 c:/devkitpro/devkitppc/bin/../lib/gcc/powerpc-eabi/12.1.0/../../../../powerpc-eabi/lib\libc.a(lib_a-memcpy.o)
 .data          0x0000000000000000        0x0 c:/devkitpro/devkitppc/bin/../lib/gcc/powerpc-eabi/12.1.0/../../../../powerpc-eabi/lib\libc.a(lib_a-memcpy.o)
 .bss           0x0000000000000000        0x0 c:/devkitpro/devkitppc/bin/../lib/gcc/powerpc-eabi/12.1.0/../../../../powerpc-eabi/lib\libc.a(lib_a-memcpy.o)
 .eh_frame      0x0000000000000000       0x28 c:/devkitpro/devkitppc/bin/../lib/gcc/powerpc-eabi/12.1.0/../../../../powerpc-eabi/lib\libc.a(lib_a-memcpy.o)
 .text          0x0000000000000000        0x0 c:/devkitpro/devkitppc/bin/../lib/gcc/powerpc-eabi/12.1.0/../../../../powerpc-eabi/lib\libc.a(lib_a-memset.o)
 .data          0x0000000000000000        0x0 c:/devkitpro/devkitppc/bin/../lib/gcc/powerpc-eabi/12.1.0/../../../../powerpc-eabi/lib\libc.a(lib_a-memset.o)
 .bss           0x0000000000000000        0x0 c:/devkitpro/devkitppc/bin/../lib/gcc/powerpc-eabi/12.1.0/../../../../powerpc-eabi/lib\libc.a(lib_a-memset.o)
 .eh_frame      0x0000000000000000       0x28 c:/devkitpro/devkitppc/bin/../lib/gcc/powerpc-eabi/12.1.0/../../../../powerpc-eabi/lib\libc.a(lib_a-memset.o)
 .text          0x0000000000000000        0x0 c:/devkitpro/devkitppc/bin/../lib/gcc/powerpc-eabi/12.1.0/../../../../powerpc-eabi/lib\libc.a(lib_a-strcmp.o)
 .data          0x0000000000000000        0x0 c:/devkitpro/devkitppc/bin/../lib/gcc/powerpc-eabi/12.1.0/../../../../powerpc-eabi/lib\libc.a(lib_a-strcmp.o)
 .bss           0x0000000000000000        0x0 c:/devkitpro/devkitppc/bin/../lib/gcc/powerpc-eabi/12.1.0/../../../../powerpc-eabi/lib\libc.a(lib_a-strcmp.o)
 .eh_frame      0x0000000000000000       0x28 c:/devkitpro/devkitppc/bin/../lib/gcc/powerpc-eabi/12.1.0/../../../../powerpc-eabi/lib\libc.a(lib_a-strcmp.o)
 .text          0x0000000000000000        0x0 c:/devkitpro/devkitppc/bin/../lib/gcc/powerpc-eabi/12.1.0/../../../../powerpc-eabi/lib\libc.a(lib_a-strlen.o)
 .data          0x0000000000000000        0x0 c:/devkitpro/devkitppc/bin/../lib/gcc/powerpc-eabi/12.1.0/../../../../powerpc-eabi/lib\libc.a(lib_a-strlen.o)
 .bss           0x0000000000000000        0x0 c:/devkitpro/devkitppc/bin/../lib/gcc/powerpc-eabi/12.1.0/../../../../powerpc-eabi/lib\libc.a(lib_a-strlen.o)
 .eh_frame      0x0000000000000000       0x28 c:/devkitpro/devkitppc/bin/../lib/gcc/powerpc-eabi/12.1.0/../../../../powerpc-eabi/lib\libc.a(lib_a-strlen.o)
 .text          0x0000000000000000        0x0 c:/devkitpro/devkitppc/bin/../lib/gcc/powerpc-eabi/12.1.0/../../../../powerpc-eabi/lib\libc.a(lib_a-syswrite.o)
 .data          0x0000000000000000        0x0 c:/devkitpro/devkitppc/bin/../lib/gcc/powerpc-eabi/12.1.0/../../../../powerpc-eabi/lib\libc.a(lib_a-syswrite.o)
 .bss           0x0000000000000000        0x0 c:/devkitpro/devkitppc/bin/../lib/gcc/powerpc-eabi/12.1.0/../../../../powerpc-eabi/lib\libc.a(lib_a-syswrite.o)
 .eh_frame      0x0000000000000000       0x28 c:/devkitpro/devkitppc/bin/../lib/gcc/powerpc-eabi/12.1.0/../../../../powerpc-eabi/lib\libc.a(lib_a-syswrite.o)
 .text          0x0000000000000000        0x0 c:/devkitpro/devkitppc/bin/../lib/gcc/powerpc-eabi/12.1.0/../../../../powerpc-eabi/lib\libc.a(lib_a-freer.o)
 .data          0x0000000000000000        0x0 c:/devkitpro/devkitppc/bin/../lib/gcc/powerpc-eabi/12.1.0/../../../../powerpc-eabi/lib\libc.a(lib_a-freer.o)
 .bss           0x0000000000000000        0x0 c:/devkitpro/devkitppc/bin/../lib/gcc/powerpc-eabi/12.1.0/../../../../powerpc-eabi/lib\libc.a(lib_a-freer.o)
 .eh_frame      0x0000000000000000       0xa0 c:/devkitpro/devkitppc/bin/../lib/gcc/powerpc-eabi/12.1.0/../../../../powerpc-eabi/lib\libc.a(lib_a-freer.o)
 .text          0x0000000000000000        0x0 c:/devkitpro/devkitppc/bin/../lib/gcc/powerpc-eabi/12.1.0/../../../../powerpc-eabi/lib\libsysbase.a(sbrk.o)
 .data          0x0000000000000000        0x0 c:/devkitpro/devkitppc/bin/../lib/gcc/powerpc-eabi/12.1.0/../../../../powerpc-eabi/lib\libsysbase.a(sbrk.o)
 .bss           0x0000000000000000        0x0 c:/devkitpro/devkitppc/bin/../lib/gcc/powerpc-eabi/12.1.0/../../../../powerpc-eabi/lib\libsysbase.a(sbrk.o)
 .eh_frame      0x0000000000000000       0x28 c:/devkitpro/devkitppc/bin/../lib/gcc/powerpc-eabi/12.1.0/../../../../powerpc-eabi/lib\libsysbase.a(sbrk.o)
 .text          0x0000000000000000        0x0 c:/devkitpro/devkitppc/bin/../lib/gcc/powerpc-eabi/12.1.0/../../../../powerpc-eabi/lib\libsysbase.a(write.o)
 .data          0x0000000000000000        0x0 c:/devkitpro/devkitppc/bin/../lib/gcc/powerpc-eabi/12.1.0/../../../../powerpc-eabi/lib\libsysbase.a(write.o)
 .bss           0x0000000000000000        0x0 c:/devkitpro/devkitppc/bin/../lib/gcc/powerpc-eabi/12.1.0/../../../../powerpc-eabi/lib\libsysbase.a(write.o)
 .eh_frame      0x0000000000000000       0x4c c:/devkitpro/devkitppc/bin/../lib/gcc/powerpc-eabi/12.1.0/../../../../powerpc-eabi/lib\libsysbase.a(write.o)
 .text          0x0000000000000000        0x0 c:/devkitpro/devkitppc/bin/../lib/gcc/powerpc-eabi/12.1.0/../../../../powerpc-eabi/lib\libsysbase.a(handle_manager.o)
 .data          0x0000000000000000        0x0 c:/devkitpro/devkitppc/bin/../lib/gcc/powerpc-eabi/12.1.0/../../../../powerpc-eabi/lib\libsysbase.a(handle_manager.o)
 .bss           0x0000000000000000        0x0 c:/devkitpro/devkitppc/bin/../lib/gcc/powerpc-eabi/12.1.0/../../../../powerpc-eabi/lib\libsysbase.a(handle_manager.o)
 .text.__free_handle
                0x0000000000000000       0x3c c:/devkitpro/devkitppc/bin/../lib/gcc/powerpc-eabi/12.1.0/../../../../powerpc-eabi/lib\libsysbase.a(handle_manager.o)
 .text.__release_handle
                0x0000000000000000       0xe4 c:/devkitpro/devkitppc/bin/../lib/gcc/powerpc-eabi/12.1.0/../../../../powerpc-eabi/lib\libsysbase.a(handle_manager.o)
 .text.__alloc_handle
                0x0000000000000000      0x124 c:/devkitpro/devkitppc/bin/../lib/gcc/powerpc-eabi/12.1.0/../../../../powerpc-eabi/lib\libsysbase.a(handle_manager.o)
 .text.dup      0x0000000000000000      0x100 c:/devkitpro/devkitppc/bin/../lib/gcc/powerpc-eabi/12.1.0/../../../../powerpc-eabi/lib\libsysbase.a(handle_manager.o)
 .text.dup2     0x0000000000000000      0x190 c:/devkitpro/devkitppc/bin/../lib/gcc/powerpc-eabi/12.1.0/../../../../powerpc-eabi/lib\libsysbase.a(handle_manager.o)
 .bss.__hndl_lock
                0x0000000000000000        0x4 c:/devkitpro/devkitppc/bin/../lib/gcc/powerpc-eabi/12.1.0/../../../../powerpc-eabi/lib\libsysbase.a(handle_manager.o)
 .eh_frame      0x0000000000000000       0xfc c:/devkitpro/devkitppc/bin/../lib/gcc/powerpc-eabi/12.1.0/../../../../powerpc-eabi/lib\libsysbase.a(handle_manager.o)
 .text          0x0000000000000000        0x0 c:/devkitpro/devkitppc/bin/../lib/gcc/powerpc-eabi/12.1.0/../../../../powerpc-eabi/lib\libsysbase.a(syscall_support.o)
 .data          0x0000000000000000        0x0 c:/devkitpro/devkitppc/bin/../lib/gcc/powerpc-eabi/12.1.0/../../../../powerpc-eabi/lib\libsysbase.a(syscall_support.o)
 .bss           0x0000000000000000        0x0 c:/devkitpro/devkitppc/bin/../lib/gcc/powerpc-eabi/12.1.0/../../../../powerpc-eabi/lib\libsysbase.a(syscall_support.o)
 .text.__libc_lock_init
                0x0000000000000000       0x1c c:/devkitpro/devkitppc/bin/../lib/gcc/powerpc-eabi/12.1.0/../../../../powerpc-eabi/lib\libsysbase.a(syscall_support.o)
 .text.__libc_lock_close
                0x0000000000000000       0x1c c:/devkitpro/devkitppc/bin/../lib/gcc/powerpc-eabi/12.1.0/../../../../powerpc-eabi/lib\libsysbase.a(syscall_support.o)
 .text.__libc_lock_release
                0x0000000000000000       0x1c c:/devkitpro/devkitppc/bin/../lib/gcc/powerpc-eabi/12.1.0/../../../../powerpc-eabi/lib\libsysbase.a(syscall_support.o)
 .text.__libc_lock_acquire
                0x0000000000000000       0x1c c:/devkitpro/devkitppc/bin/../lib/gcc/powerpc-eabi/12.1.0/../../../../powerpc-eabi/lib\libsysbase.a(syscall_support.o)
 .eh_frame      0x0000000000000000       0x8c c:/devkitpro/devkitppc/bin/../lib/gcc/powerpc-eabi/12.1.0/../../../../powerpc-eabi/lib\libsysbase.a(syscall_support.o)
 .text          0x0000000000000000        0x0 c:/devkitpro/devkitppc/bin/../lib/gcc/powerpc-eabi/12.1.0/../../../../powerpc-eabi/lib\libsysbase.a(iosupport.o)
 .data          0x0000000000000000        0x0 c:/devkitpro/devkitppc/bin/../lib/gcc/powerpc-eabi/12.1.0/../../../../powerpc-eabi/lib\libsysbase.a(iosupport.o)
 .bss           0x0000000000000000        0x0 c:/devkitpro/devkitppc/bin/../lib/gcc/powerpc-eabi/12.1.0/../../../../powerpc-eabi/lib\libsysbase.a(iosupport.o)
 .text.setDefaultDevice
                0x0000000000000000       0x18 c:/devkitpro/devkitppc/bin/../lib/gcc/powerpc-eabi/12.1.0/../../../../powerpc-eabi/lib\libsysbase.a(iosupport.o)
 .text.FindDevice
                0x0000000000000000      0x128 c:/devkitpro/devkitppc/bin/../lib/gcc/powerpc-eabi/12.1.0/../../../../powerpc-eabi/lib\libsysbase.a(iosupport.o)
 .text.RemoveDevice
                0x0000000000000000       0x44 c:/devkitpro/devkitppc/bin/../lib/gcc/powerpc-eabi/12.1.0/../../../../powerpc-eabi/lib\libsysbase.a(iosupport.o)
 .text.AddDevice
                0x0000000000000000      0x114 c:/devkitpro/devkitppc/bin/../lib/gcc/powerpc-eabi/12.1.0/../../../../powerpc-eabi/lib\libsysbase.a(iosupport.o)
 .text.GetDeviceOpTab
                0x0000000000000000       0x4c c:/devkitpro/devkitppc/bin/../lib/gcc/powerpc-eabi/12.1.0/../../../../powerpc-eabi/lib\libsysbase.a(iosupport.o)
 .data.defaultDevice
                0x0000000000000000        0x4 c:/devkitpro/devkitppc/bin/../lib/gcc/powerpc-eabi/12.1.0/../../../../powerpc-eabi/lib\libsysbase.a(iosupport.o)
 .eh_frame      0x0000000000000000      0x124 c:/devkitpro/devkitppc/bin/../lib/gcc/powerpc-eabi/12.1.0/../../../../powerpc-eabi/lib\libsysbase.a(iosupport.o)
 .text          0x0000000000000000        0x0 c:/devkitpro/devkitppc/bin/../lib/gcc/powerpc-eabi/12.1.0/../../../../powerpc-eabi/lib\libc.a(lib_a-ctype_.o)
 .data          0x0000000000000000        0x0 c:/devkitpro/devkitppc/bin/../lib/gcc/powerpc-eabi/12.1.0/../../../../powerpc-eabi/lib\libc.a(lib_a-ctype_.o)
 .bss           0x0000000000000000        0x0 c:/devkitpro/devkitppc/bin/../lib/gcc/powerpc-eabi/12.1.0/../../../../powerpc-eabi/lib\libc.a(lib_a-ctype_.o)
 .text.__set_ctype
                0x0000000000000000       0x10 c:/devkitpro/devkitppc/bin/../lib/gcc/powerpc-eabi/12.1.0/../../../../powerpc-eabi/lib\libc.a(lib_a-ctype_.o)
 .rodata._ctype_
                0x0000000000000000      0x101 c:/devkitpro/devkitppc/bin/../lib/gcc/powerpc-eabi/12.1.0/../../../../powerpc-eabi/lib\libc.a(lib_a-ctype_.o)
 .comment       0x0000000000000000       0x24 c:/devkitpro/devkitppc/bin/../lib/gcc/powerpc-eabi/12.1.0/../../../../powerpc-eabi/lib\libc.a(lib_a-ctype_.o)
 .eh_frame      0x0000000000000000       0x28 c:/devkitpro/devkitppc/bin/../lib/gcc/powerpc-eabi/12.1.0/../../../../powerpc-eabi/lib\libc.a(lib_a-ctype_.o)
 .text          0x0000000000000000        0x0 c:/devkitpro/devkitppc/bin/../lib/gcc/powerpc-eabi/12.1.0/../../../../powerpc-eabi/lib\libc.a(lib_a-strchr.o)
 .data          0x0000000000000000        0x0 c:/devkitpro/devkitppc/bin/../lib/gcc/powerpc-eabi/12.1.0/../../../../powerpc-eabi/lib\libc.a(lib_a-strchr.o)
 .bss           0x0000000000000000        0x0 c:/devkitpro/devkitppc/bin/../lib/gcc/powerpc-eabi/12.1.0/../../../../powerpc-eabi/lib\libc.a(lib_a-strchr.o)
 .text.strchr   0x0000000000000000      0x154 c:/devkitpro/devkitppc/bin/../lib/gcc/powerpc-eabi/12.1.0/../../../../powerpc-eabi/lib\libc.a(lib_a-strchr.o)
 .comment       0x0000000000000000       0x24 c:/devkitpro/devkitppc/bin/../lib/gcc/powerpc-eabi/12.1.0/../../../../powerpc-eabi/lib\libc.a(lib_a-strchr.o)
 .eh_frame      0x0000000000000000       0x28 c:/devkitpro/devkitppc/bin/../lib/gcc/powerpc-eabi/12.1.0/../../../../powerpc-eabi/lib\libc.a(lib_a-strchr.o)
 .text          0x0000000000000000        0x0 c:/devkitpro/devkitppc/bin/../lib/gcc/powerpc-eabi/12.1.0/../../../../powerpc-eabi/lib\libc.a(lib_a-strncmp.o)
 .data          0x0000000000000000        0x0 c:/devkitpro/devkitppc/bin/../lib/gcc/powerpc-eabi/12.1.0/../../../../powerpc-eabi/lib\libc.a(lib_a-strncmp.o)
 .bss           0x0000000000000000        0x0 c:/devkitpro/devkitppc/bin/../lib/gcc/powerpc-eabi/12.1.0/../../../../powerpc-eabi/lib\libc.a(lib_a-strncmp.o)
 .text.strncmp  0x0000000000000000       0xcc c:/devkitpro/devkitppc/bin/../lib/gcc/powerpc-eabi/12.1.0/../../../../powerpc-eabi/lib\libc.a(lib_a-strncmp.o)
 .comment       0x0000000000000000       0x24 c:/devkitpro/devkitppc/bin/../lib/gcc/powerpc-eabi/12.1.0/../../../../powerpc-eabi/lib\libc.a(lib_a-strncmp.o)
 .eh_frame      0x0000000000000000       0x28 c:/devkitpro/devkitppc/bin/../lib/gcc/powerpc-eabi/12.1.0/../../../../powerpc-eabi/lib\libc.a(lib_a-strncmp.o)

Memory Configuration

Name             Origin             Length             Attributes
rom              0x0000000001800000 0x0000000001000000 axrl
*default*        0x0000000000000000 0xffffffffffffffff

Linker script and memory map

LOAD Main.o
LOAD c:/devkitpro/devkitppc/bin/../lib/gcc/powerpc-eabi/12.1.0/../../../../powerpc-eabi/lib\libstdc++.a
LOAD c:/devkitpro/devkitppc/bin/../lib/gcc/powerpc-eabi/12.1.0/../../../../powerpc-eabi/lib\libm.a
LOAD c:/devkitpro/devkitppc/bin/../lib/gcc/powerpc-eabi/12.1.0\libgcc.a
START GROUP
LOAD c:/devkitpro/devkitppc/bin/../lib/gcc/powerpc-eabi/12.1.0/../../../../powerpc-eabi/lib\libsysbase.a
LOAD c:/devkitpro/devkitppc/bin/../lib/gcc/powerpc-eabi/12.1.0/../../../../powerpc-eabi/lib\libc.a
END GROUP
LOAD c:/devkitpro/devkitppc/bin/../lib/gcc/powerpc-eabi/12.1.0\libgcc.a

.eh_frame_hdr   0x0000000001800000        0x0
 .eh_frame_hdr  0x0000000001800000        0x0 Main.o

.eh_frame       0x0000000001800000        0x0
 .eh_frame      0x0000000001800000        0x0 Main.o

.sdata2         0x0000000001800000        0x0
 .sdata2        0x0000000001800000        0x0 Main.o

.text           0x0000000001800000    0x191e0
 *(.entry)
 .entry         0x0000000001800000       0x20 Main.o
                0x0000000001800000                entry
 *(.text.*)
 .text._ZL8degToRadf
                0x0000000001800020       0x14 Main.o
 .text._ZN4XRay8onToggleEP6Module
                0x0000000001800034        0x4 Main.o
                0x0000000001800034                _ZN4XRay8onToggleEP6Module
 .text._Z89real_renderHitbox__22EntityRenderDispatcherFRQ2_5boost25shared_ptr__tm__8_6EntitydN22fT5iPvRKN8mc_boost10shared_ptrIN2mc6EntityEEEjfffff
                0x0000000001800038       0xd0 Main.o
                0x0000000001800038                _Z89real_renderHitbox__22EntityRenderDispatcherFRQ2_5boost25shared_ptr__tm__8_6EntitydN22fT5iPvRKN8mc_boost10shared_ptrIN2mc6EntityEEEjfffff
 .text._Z33real_renderSky__13LevelRendererFfPvf
                0x0000000001800108       0xd0 Main.o
                0x0000000001800108                _Z33real_renderSky__13LevelRendererFfPvf
 .text._Z26real_tick__11LocalPlayerFvPN2mc11LocalPlayerE
                0x00000000018001d8       0xd0 Main.o
                0x00000000018001d8                _Z26real_tick__11LocalPlayerFvPN2mc11LocalPlayerE
 .text._Z94real_handleDisconnect__20ClientPacketListenerFQ2_5boost37shared_ptr__tm__19_16DisconnectPacketPN2mc20ClientPacketListenerERKN8mc_boost10shared_ptrINS_16DisconnectPacketEEE
                0x00000000018002a8       0xd0 Main.o
                0x00000000018002a8                _Z94real_handleDisconnect__20ClientPacketListenerFQ2_5boost37shared_ptr__tm__19_16DisconnectPacketPN2mc20ClientPacketListenerERKN8mc_boost10shared_ptrINS_16DisconnectPacketEEE
 .text._Z34real_sendPosition__11LocalPlayerFvPN2mc11LocalPlayerE
                0x0000000001800378       0xd0 Main.o
                0x0000000001800378                _Z34real_sendPosition__11LocalPlayerFvPN2mc11LocalPlayerE
 .text._Z71real_getClipAABB__11LiquidBlockFPC10BlockStateP11LevelSourceRC8BlockPosv
                0x0000000001800448       0xd4 Main.o
                0x0000000001800448                _Z71real_getClipAABB__11LiquidBlockFPC10BlockStateP11LevelSourceRC8BlockPosv
 .text._Z52real_IsInPublicJoinableGame__19CGameNetworkManagerFvPv
                0x000000000180051c       0xd4 Main.o
                0x000000000180051c                _Z52real_IsInPublicJoinableGame__19CGameNetworkManagerFvPv
 .text._Z116real_addMessage__3GuiFRCQ2_3std78basic_string__tm__58_wQ2_3std20char_traits__tm__2_wQ2_3std18allocator__tm__2_wibN33PN2mc3GuiERKN4mstd7wstringEibbbb
                0x00000000018005f0       0xd0 Main.o
                0x00000000018005f0                _Z116real_addMessage__3GuiFRCQ2_3std78basic_string__tm__58_wQ2_3std20char_traits__tm__2_wQ2_3std18allocator__tm__2_wibN33PN2mc3GuiERKN4mstd7wstringEibbbb
 .text._Z153real_renderNameTagInWorld__12GameRendererSFP4FontRCQ2_3std78basic_string__tm__58_wQ2_3std20char_traits__tm__2_wQ2_3std18allocator__tm__2_wfN23iN23bT9T6T3PN2mc4FontERKN4mstd7wstringEfffiffbbif
                0x00000000018006c0       0xd0 Main.o
                0x00000000018006c0                _Z153real_renderNameTagInWorld__12GameRendererSFP4FontRCQ2_3std78basic_string__tm__58_wQ2_3std20char_traits__tm__2_wQ2_3std18allocator__tm__2_wfN23iN23bT9T6T3PN2mc4FontERKN4mstd7wstringEfffiffbbif
 .text._Z66real_renderBlock__13BlockRendererFPC10BlockStateP5LevelRC8BlockPosP13BlockRendererP10BlockStatePN2mc5LevelERKNS3_8BlockPosE
                0x0000000001800790       0xd0 Main.o
                0x0000000001800790                _Z66real_renderBlock__13BlockRendererFPC10BlockStateP5LevelRC8BlockPosP13BlockRendererP10BlockStatePN2mc5LevelERKNS3_8BlockPosE
 .text._Z31real_renderDebug__9MinecraftSFvv
                0x0000000001800860       0xd4 Main.o
                0x0000000001800860                _Z31real_renderDebug__9MinecraftSFvv
 .text._ZZ6c_mainPvENKUlP6ModuleE3_cvPFvS1_EEv.constprop.0
                0x0000000001800934        0xc Main.o
 .text._ZZ6c_mainPvENKUlP6ModuleE2_cvPFvS1_EEv.constprop.0
                0x0000000001800940        0xc Main.o
 .text._ZZZ6c_mainPvENKUlP6ModuleE2_clES1_ENKUlS_bE_cvPFiS_bEEv.constprop.0
                0x000000000180094c        0xc Main.o
 .text._ZZ6c_mainPvENKUlP6ModuleE1_cvPFvS1_EEv.constprop.0
                0x0000000001800958        0xc Main.o
 .text._ZZ6c_mainPvENKUlP6ModuleE0_cvPFvS1_EEv.constprop.0
                0x0000000001800964        0xc Main.o
 .text._ZZ6c_mainPvENKUlP6ModuleE_cvPFvS1_EEv.constprop.0
                0x0000000001800970        0xc Main.o
 .text._ZZ18hook_onFrameInMenuvENKUlPvE_cvPFiS_EEv.constprop.0
                0x000000000180097c        0xc Main.o
 .text._ZN4code4FuncIvLj58902720EJPKwjS2_PKcijEEclES2_jS2_S4_ij.isra.0
                0x0000000001800988       0x10 Main.o
 .text._Z11mc_swprintfIJPKcijEEvPKwjS3_DpT_.constprop.0
                0x0000000001800998       0x20 Main.o
 .text._ZN4code4FuncIvLj58902720EJPKwjS2_PwEEclES2_jS2_S3_.isra.0
                0x00000000018009b8       0x10 Main.o
 .text._Z11mc_swprintfIJPwEEvPKwjS2_DpT_
                0x00000000018009c8        0x4 Main.o
 .text._ZNK2xf6VectorIN4mstd4pairIjfEEE5beginEv.isra.0
                0x00000000018009cc        0x4 Main.o
 .text._ZN4code4FuncIvLj58902720EJPKwjS2_S2_S2_EEclES2_jS2_S2_S2_.isra.0
                0x00000000018009d0       0x10 Main.o
 .text._Z11mc_swprintfIJPKwS1_EEvS1_jS1_DpT_.constprop.0
                0x00000000018009e0       0x18 Main.o
 .text._ZN4code4FuncIvLj58902720EJPKwjS2_PcS3_EEclES2_jS2_S3_S3_.isra.0
                0x00000000018009f8       0x10 Main.o
 .text._Z11mc_swprintfIJPcS0_EEvPKwjS2_DpT_.constprop.0
                0x0000000001800a08       0x18 Main.o
 .text._ZNK2xf6VectorIN10CustomChat9ChatEntryEE5beginEv.isra.0
                0x0000000001800a20        0x4 Main.o
 .text._ZN4code4FuncIvLj58902720EJPKwjS2_S2_EEclES2_jS2_S2_.isra.0
                0x0000000001800a24       0x10 Main.o
 .text._Z11mc_swprintfIJPKwEEvS1_jS1_DpT_.constprop.0
                0x0000000001800a34       0x14 Main.o
 .text._ZN4code4FuncIvLj58902720EJPKwjS2_iEEclES2_jS2_i.isra.0
                0x0000000001800a48       0x10 Main.o
 .text._Z11mc_swprintfIJiEEvPKwjS1_DpT_
                0x0000000001800a58        0x4 Main.o
 .text._ZN2xf6StringIwE6lengthEv.isra.0
                0x0000000001800a5c        0x4 Main.o
 .text._ZN2xf6VectorIP6ModuleE5beginEv.isra.0
                0x0000000001800a60        0x4 Main.o
 .text._ZNK2xf6VectorIP6ModuleE5beginEv.isra.0
                0x0000000001800a64        0x4 Main.o
 .text._ZN4code4FuncIvLj58902720EJPKwjS2_jEEclES2_jS2_j.isra.0
                0x0000000001800a68       0x10 Main.o
 .text._Z11mc_swprintfIJjEEvPKwjS1_DpT_
                0x0000000001800a78        0x4 Main.o
 .text._ZN4code4FuncIvLj58902720EJPKwjS2_jPKciEEclES2_jS2_jS4_i.isra.0
                0x0000000001800a7c       0x10 Main.o
 .text._Z11mc_swprintfIJjPKciEEvPKwjS3_DpT_.constprop.0
                0x0000000001800a8c       0x1c Main.o
 .text._ZN4code4FuncIvLj58902720EJPKwjS2_EEclES2_jS2_.isra.0
                0x0000000001800aa8       0x10 Main.o
 .text._Z11mc_swprintfIJEEvPKwjS1_DpT_
                0x0000000001800ab8        0x4 Main.o
 .text._ZN4code4FuncIPcLj58895052EJjEEclEj.isra.0
                0x0000000001800abc       0x10 Main.o
 .text._ZN4code3Mem2asIPwEERT_v.isra.0
                0x0000000001800acc        0x4 Main.o
 .text._ZNK8mc_boost10shared_ptrIN2mc16DisconnectPacketEEptEv.isra.0
                0x0000000001800ad0        0x4 Main.o
 .text._ZN2xf6VectorIN4mstd4pairIjfEEE5frontEv.isra.0
                0x0000000001800ad4        0x4 Main.o
 .text._ZN2xf6VectorIN4mstd4pairIjfEEE7getSizeEv.isra.0
                0x0000000001800ad8        0x4 Main.o
 .text._ZN4code4FuncIvLj51909896EJEEclEv.isra.0
                0x0000000001800adc       0x10 Main.o
 .text._ZN4code4FuncIvLj51880076EJEEclEv.isra.0
                0x0000000001800aec       0x10 Main.o
 .text._ZN2xf6VectorIN10CustomChat9ChatEntryEE7getSizeEv.isra.0
                0x0000000001800afc        0x4 Main.o
 .text._ZN6SliderIfE11getDrawFuncEv.isra.0
                0x0000000001800b00        0x4 Main.o
 .text._ZZN2xf6StringIwE11hexStrToIntES1_ENKUlwE_clEw.isra.0
                0x0000000001800b04       0x30 Main.o
 .text._ZNK8mc_boost10shared_ptrIN2mc6EntityEEptEv.isra.0
                0x0000000001800b34        0x4 Main.o
 .text._ZN4mstd6vectorIN8mc_boost10shared_ptrIN2mc6EntityEEEE5beginEv.isra.0
                0x0000000001800b38        0x4 Main.o
 .text._ZNK8mc_boost10shared_ptrIN2mc6PlayerEEptEv.isra.0
                0x0000000001800b3c        0x4 Main.o
 .text._ZN4mstd6vectorIN8mc_boost10shared_ptrIN2mc6PlayerEEEE5beginEv.isra.0
                0x0000000001800b40        0x4 Main.o
 .text._ZN6SliderIiE6getMaxEv.isra.0
                0x0000000001800b44        0x4 Main.o
 .text._ZN6SliderIiE12getIncrementEv.isra.0
                0x0000000001800b48        0x4 Main.o
 .text._ZN6SliderIiE6getMinEv.isra.0
                0x0000000001800b4c        0x4 Main.o
 .text._ZNK2xf6StringIwE5c_strEv.isra.0
                0x0000000001800b50        0x4 Main.o
 .text._ZN6SliderIiE10getCurrentEv.isra.0
                0x0000000001800b54        0x4 Main.o
 .text._ZN4code4FuncIjLj39993720EJfffEEclEfff.isra.0
                0x0000000001800b58       0x10 Main.o
 .text._ZN2xf6VectorIP6ModuleE7getSizeEv.isra.0
                0x0000000001800b68        0x4 Main.o
 .text._ZN4code4FuncIvLj39230180EJPN2mc5LevelERKN8mc_boost10shared_ptrINS1_6PlayerEEERKN4mstd7wstringEEEclES3_S9_SD_.isra.0
                0x0000000001800b6c       0x10 Main.o
 .text._ZN4code4FuncIvLj39089784EJPN2mc5LevelERKNS1_8BlockPosEjibEEclES3_S6_jib.isra.0
                0x0000000001800b7c       0x10 Main.o
 .text._ZN4code4FuncIvLj39102436EJPN2mc5LevelERKNS1_8BlockPosEiibEEclES3_S6_iib.isra.0
                0x0000000001800b8c       0x10 Main.o
 .text._ZN4code4FuncIjLj39111852EJPN2mc5LevelEiiiEEclES3_iii.isra.0
                0x0000000001800b9c       0x10 Main.o
 .text._ZN4code4FuncIiLj58902296EJPKwEEclES2_.isra.0
                0x0000000001800bac       0x10 Main.o
 .text._ZN4code4FuncIvLj58902324EJPKwS2_EEclES2_S2_.isra.0
                0x0000000001800bbc       0x10 Main.o
 .text._ZN4code4FuncIiLj38104524EJPN2mc8GameTypeEEEclES3_.isra.0
                0x0000000001800bcc       0x10 Main.o
 .text._ZN4code4FuncIvLj51611452EJPN2mc3GuiERKN4mstd7wstringEjbbbbEEclES3_S7_jbbbb.isra.0
                0x0000000001800bdc       0x10 Main.o
 .text._ZN4code4FuncIPN2mc13BufferBuilderELj53706472EJPNS1_10TesselatorEEEclES5_.isra.0
                0x0000000001800bec       0x10 Main.o
 .text._ZN4code4FuncIPN2mc10TesselatorELj53706480EJEEclEv.isra.0
                0x0000000001800bfc       0x10 Main.o
 .text._ZN4code4FuncIvLj51416132EJEEclEv.isra.0
                0x0000000001800c0c       0x10 Main.o
 .text._ZN4code4FuncIvLj51268520EJddddEEclEdddd.isra.0
                0x0000000001800c1c       0x10 Main.o
 .text._ZN4code4FuncIvLj51268388EJEEclEv.isra.0
                0x0000000001800c2c       0x10 Main.o
 .text._ZN4code4FuncIvLj51270304EJjjEEclEjj.isra.0
                0x0000000001800c3c       0x10 Main.o
 .text._ZN4code4FuncIvLj51270440EJEEclEv.isra.0
                0x0000000001800c4c       0x10 Main.o
 .text._ZN4code4FuncIvLj51270276EJEEclEv.isra.0
                0x0000000001800c5c       0x10 Main.o
 .text._ZN4code4FuncIvLj51353448EJEEclEv.isra.0
                0x0000000001800c6c       0x10 Main.o
 .text._ZN4code4FuncIvLj51353420EJEEclEv.isra.0
                0x0000000001800c7c       0x10 Main.o
 .text._ZN4code4FuncIvLj51392640EJEEclEv.isra.0
                0x0000000001800c8c       0x10 Main.o
 .text._ZN4code4FuncIvLj51392612EJjEEclEj.isra.0
                0x0000000001800c9c       0x10 Main.o
 .text._ZN4code4FuncIvLj51449164EJddddddEEclEdddddd.isra.0
                0x0000000001800cac       0x10 Main.o
 .text._ZN4code4FuncIvLj51274388EJEEclEv.isra.0
                0x0000000001800cbc       0x10 Main.o
 .text._ZN4code4FuncIiLj51531512EJEEclEv.isra.0
                0x0000000001800ccc       0x10 Main.o
 .text._ZN4code4FuncIvLj51274344EJEEclEv.isra.0
                0x0000000001800cdc       0x10 Main.o
 .text._ZN4code4FuncIvLj51268568EJEEclEv.isra.0
                0x0000000001800cec       0x10 Main.o
 .text._ZN4code4FuncIvLj51268436EJfffEEclEfff.isra.0
                0x0000000001800cfc       0x10 Main.o
 .text._ZN4code4FuncIvLj51268460EJfffEEclEfff.isra.0
                0x0000000001800d0c       0x10 Main.o
 .text._ZN4code4FuncIvLj51268412EJEEclEv.isra.0
                0x0000000001800d1c       0x10 Main.o
 .text._ZN4code4FuncIvLj51289016EJEEclEv.isra.0
                0x0000000001800d2c       0x10 Main.o
 .text._ZN4code4FuncIvLj51288988EJEEclEv.isra.0
                0x0000000001800d3c       0x10 Main.o
 .text._ZN4code4FuncIvLj51288592EJPN2mc4FontERKN4mstd7wstringEjjjjjEEclES3_S7_jjjjj.isra.0
                0x0000000001800d4c       0x10 Main.o
 .text._ZN4code4FuncIvLj51538824EJPN2mc4FontERKN4mstd7wstringEjjjEEclES3_S7_jjj.isra.0
                0x0000000001800d5c       0x10 Main.o
 .text._ZN4code4FuncIjLj51286428EJPN2mc4FontERKN4mstd7wstringEEEclES3_S7_.isra.0
                0x0000000001800d6c       0x10 Main.o
 .text._ZN4code4FuncIvLj50497044EJPN2mc13BufferedImageERKN4mstd7wstringEbbS7_iEEclES3_S7_bbS7_i.isra.0
                0x0000000001800d7c       0x10 Main.o
 .text._ZN4code4FuncIvLj50143880EJPN2mc13BufferBuilderEEEclES3_.isra.0
                0x0000000001800d8c       0x10 Main.o
 .text._ZN4code4FuncIvLj50145844EJPN2mc13BufferBuilderEfffEEclES3_fff.isra.0
                0x0000000001800d9c       0x10 Main.o
 .text._ZN4code4FuncIvLj50146036EJPN2mc13BufferBuilderEfffffEEclES3_fffff.isra.0
                0x0000000001800dac       0x10 Main.o
 .text._ZN4code4FuncIvLj50149060EJPN2mc13BufferBuilderEiiEEclES3_ii.isra.0
                0x0000000001800dbc       0x10 Main.o
 .text._ZN4code4FuncIvLj50143156EJPN2mc13BufferBuilderEiEEclES3_i.isra.0
                0x0000000001800dcc       0x10 Main.o
 .text._ZN4code4FuncIvLj35839268EJPN2mc15CraftItemPacketEiiiEEclES3_iii.isra.0
                0x0000000001800ddc       0x10 Main.o
 .text._ZN4code4FuncIvLj42673592EJPN2mc26ServerboundUseItemOnPacketERKNS1_8BlockPosEPKNS1_9DirectionENS1_15InteractionHand16EInteractionHandEfffEEclES3_S6_S9_SB_fff.isra.0
                0x0000000001800dec       0x10 Main.o
 .text._ZN4code4FuncIvLj42666488EJPN2mc36ServerboundSetCreativeModeSlotPacketEiRKN8mc_boost10shared_ptrINS1_12ItemInstanceEEEEEclES3_iS9_.isra.0
                0x0000000001800dfc       0x10 Main.o
 .text._ZN4code4FuncIvLj42648132EJPN2mc25ServerboundInteractPacketERKN8mc_boost10shared_ptrINS1_6EntityEEEEEclES3_S9_.isra.0
                0x0000000001800e0c       0x10 Main.o
 .text._ZN4code4FuncIvLj50636248EJPN2mc20ClientPacketListenerEN8mc_boost10shared_ptrINS1_6PacketEEEEEclES3_S7_.isra.0
                0x0000000001800e1c       0x40 Main.o
 .text._ZN4code4FuncIiLj38247956EJPN2mc12ItemInstanceEEEclES3_.isra.0
                0x0000000001800e5c       0x10 Main.o
 .text._ZN4code4FuncIvLj38330496EJPN2mc12ItemInstanceEPNS1_11CompoundTagEEEclES3_S5_.isra.0
                0x0000000001800e6c       0x10 Main.o
 .text._ZN4code4FuncIvLj38298320EJPN2mc12ItemInstanceEPNS1_4ItemEiiEEclES3_S5_ii.isra.0
                0x0000000001800e7c       0x10 Main.o
 .text._ZN4code4FuncIPN2mc7ListTagELj35764636EJPNS1_11CompoundTagERKN4mstd7wstringEiEEclES5_S9_i.isra.0
                0x0000000001800e8c       0x10 Main.o
 .text._ZN4code4FuncIbLj35750912EJPN2mc11CompoundTagERKN4mstd7wstringEEEclES3_S7_.isra.0
                0x0000000001800e9c       0x10 Main.o
 .text._ZN4code4FuncIvLj35752576EJPN2mc11CompoundTagERKN4mstd7wstringEPNS1_3TagEEEclES3_S7_S9_.isra.0
                0x0000000001800eac       0x10 Main.o
 .text._ZN4code4FuncIvLj35761516EJPN2mc11CompoundTagERKN4mstd7wstringEsEEclES3_S7_s.isra.0
                0x0000000001800ebc       0x10 Main.o
 .text._ZN4code4FuncIvLj35752412EJPN2mc11CompoundTagERKN4mstd7wstringES7_EEclES3_S7_S7_.isra.0
                0x0000000001800ecc       0x10 Main.o
 .text._ZN4code4FuncIvLj35762204EJPN2mc11CompoundTagERKN4mstd7wstringEdEEclES3_S7_d.isra.0
                0x0000000001800edc       0x10 Main.o
 .text._ZN4code4FuncIvLj35761680EJPN2mc11CompoundTagERKN4mstd7wstringEiEEclES3_S7_i.isra.0
                0x0000000001800eec       0x10 Main.o
 .text._ZN4code4FuncIvLj35750592EJPN2mc11CompoundTagEEEclES3_.isra.0
                0x0000000001800efc       0x10 Main.o
 .text._ZN4code4FuncIvLj39272332EJPN2mc7ListTagEPNS1_3TagEEEclES3_S5_.isra.0
                0x0000000001800f0c       0x10 Main.o
 .text._ZN4code4FuncIvLj39270744EJPN2mc7ListTagEiEEclES3_i.isra.0
                0x0000000001800f1c       0x10 Main.o
 .text._ZN4code4FuncIbLj35077256EJPN2mc9BlockItemEPNS1_5LevelERKNS1_8BlockPosEPNS1_9DirectionERKN8mc_boost10shared_ptrINS1_6PlayerEEERKNSC_INS1_12ItemInstanceEEEEEclES3_S5_S8_SA_SG_SK_.isra.0
                0x0000000001800f2c       0x10 Main.o
 .text._ZN4code4FuncIvLj35069644EJPN2mc9BlockItemEPNS1_5BlockEEEclES3_S5_.isra.0
                0x0000000001800f3c       0x10 Main.o
 .text._ZN4code4FuncIiLj38347008EJPN2mc4ItemEEEclES3_.isra.0
                0x0000000001800f4c       0x10 Main.o
 .text._ZN4code4FuncIPN2mc4ItemELj38299288EJiEEclEi.isra.0
                0x0000000001800f5c       0x10 Main.o
 .text._ZN4code4FuncIbLj38598712EJiEEclEi.isra.0
                0x0000000001800f6c       0x10 Main.o
 .text._ZN4code4FuncIvLj38495704EJPN2mc4ItemEEEclES3_.isra.0
                0x0000000001800f7c       0x10 Main.o
 .text._ZN4code4FuncIyLj38983272EJEEclEv.isra.0
                0x0000000001800f8c       0x10 Main.o
 .text._ZN4code4FuncIyLj34290908EJEEclEv.isra.0
                0x0000000001800f9c       0x10 Main.o
 .text._ZN4code4FuncIPN2mc8GameTypeELj52859640EJPNS1_12RemotePlayerEEEclES5_.isra.0
                0x0000000001800fac       0x10 Main.o
 .text._ZN4code4FuncIyLj53664244EJEEclEv.isra.0
                0x0000000001800fbc       0x10 Main.o
 .text._ZN4code4FuncIvLj52329844EJPN2mc11LocalPlayerEiEEclES3_i.isra.0
                0x0000000001800fcc       0x10 Main.o
 .text._ZN4code4FuncIPN2mc8GameTypeELj52379924EJPNS1_11LocalPlayerEEEclES5_.isra.0
                0x0000000001800fdc       0x10 Main.o
 .text._ZN4code4FuncIfLj41007236EJPN2mc6PlayerEEEclES3_.isra.0
                0x0000000001800fec       0x10 Main.o
 .text._ZN4code4FuncIfLj41056024EJPN2mc6PlayerEEEclES3_.isra.0
                0x0000000001800ffc       0x10 Main.o
 .text._ZN4code4FuncIbLj41067908EJPN2mc6PlayerEPNS1_5BlockEEEclES3_S5_.isra.0
                0x000000000180100c       0x10 Main.o
 .text._ZN4code4FuncIfLj41054920EJPN2mc6PlayerEEEclES3_.isra.0
                0x000000000180101c       0x10 Main.o
 .text._ZN4code4FuncIbLj41003536EJPN2mc6PlayerEEEclES3_.isra.0
                0x000000000180102c       0x10 Main.o
 .text._ZN4code4FuncIbLj55196288EJPN2mc9PlayerUIDERKS2_EEclES3_S5_.isra.0
                0x000000000180103c       0x10 Main.o
 .text._ZN4code4FuncIyLj39856036EJEEclEv.isra.0
                0x000000000180104c       0x10 Main.o
 .text._ZN4code4FuncIfLj39293944EJPN2mc12LivingEntityEEEclES3_.isra.0
                0x000000000180105c       0x10 Main.o
 .text._ZN4code4FuncIfLj39319208EJPN2mc12LivingEntityEEEclES3_.isra.0
                0x000000000180106c       0x10 Main.o
 .text._ZN4code4FuncIfLj36992536EJPN2mc6EntityEEEclES3_.isra.0
                0x000000000180107c       0x10 Main.o
 .text._ZN4code4FuncIPN2mc8BlockPosELj34355924EJS3_iiiEEclES3_iii.isra.0
                0x000000000180108c       0x10 Main.o
 .text._ZN4code4FuncIRKN8mc_boost10shared_ptrIN2mc12ItemInstanceEEELj38371196EJPNS3_9InventoryEEEclES9_.isra.0
                0x000000000180109c       0x10 Main.o
 .text._ZN4code4FuncIPN2mc20ClientPacketListenerELj52110932EJPNS1_9MinecraftEiEEclES5_i.isra.0
                0x00000000018010ac       0x10 Main.o
 .text._ZN4code4FuncIPN2mc5LevelELj51955832EJPNS1_9MinecraftEiEEclES5_i.isra.0
                0x00000000018010bc       0x10 Main.o
 .text._ZN4code4FuncIPN2mc9MinecraftELj51800088EJEEclEv.isra.0
                0x00000000018010cc       0x10 Main.o
 .text._ZN4code4FuncIvLj55234412EJPN2mc13C4JThreadImplEEEclES3_.isra.0
                0x00000000018010dc       0x10 Main.o
 .text._ZN4code4FuncIvLj55234736EJPN2mc13C4JThreadImplEbEEclES3_b.isra.0
                0x00000000018010ec       0x10 Main.o
 .text._ZN4code4FuncIvLj55233216EJPN2mc13C4JThreadImplEPFiPvES4_PKciEEclES3_S6_S4_S8_i.isra.0
                0x00000000018010fc       0x10 Main.o
 .text._ZN4code4FuncIvLj54078944EJPN2mc8TexturesEEEclES3_.isra.0
                0x000000000180110c       0x10 Main.o
 .text._ZN4code4FuncIjLj54075260EJPN2mc8TexturesERKN4mstd7wstringEiEEclES3_S7_i.isra.0
                0x000000000180111c       0x10 Main.o
 .text._ZN4code4FuncIvLj54062712EJPN2mc8TexturesEiEEclES3_i.isra.0
                0x000000000180112c       0x10 Main.o
 .text._ZN4code4FuncIvLj54064788EJPN2mc8TexturesEPNS1_13BufferedImageEiEEclES3_S5_i.isra.0
                0x000000000180113c       0x10 Main.o
 .text._ZN4code4FuncIyLj43598856EJEEclEv.isra.0
                0x000000000180114c       0x10 Main.o
 .text._ZN4code4FuncIvLj47872280EJPN2mc19ConsoleUIControllerEPNS1_10SoundEventEEEclES3_S5_.isra.0
                0x000000000180115c       0x10 Main.o
 .text._ZN4code4FuncIRKN4mstd7wstringELj49730616EJPvjEEclES5_j.isra.0
                0x000000000180116c       0x10 Main.o
 .text._ZN4code4FuncIvLj34277588EJPN4mstd7wstringEPKwEEclES3_S5_.isra.0
                0x000000000180117c       0x10 Main.o
 .text._ZN4code4FuncIbLj54567740EJPN2mc6CInputEPKwS5_jjPFiPvbES6_iEEclES3_S5_S5_jjS8_S6_i.isra.0
                0x000000000180118c       0x10 Main.o
 .text._ZN4code4FuncIvLj54568064EJPN2mc6CInputEPKwjEEclES3_S5_j.isra.0
                0x000000000180119c       0x10 Main.o
 .text._ZN4code3Mem2asIPN2mc6CInputEEERT_v.isra.0
                0x00000000018011ac        0x4 Main.o
 .text._ZN4code4FuncIPN2mc5BlockELj33660736EJiEEclEi.isra.0
                0x00000000018011b0       0x10 Main.o
 .text._ZN4code4FuncIjLj34379520EJPN2mc5BlockEEEclES3_.isra.0
                0x00000000018011c0       0x10 Main.o
 .text._ZN2xf6VectorIjE5beginEv.isra.0
                0x00000000018011d0        0x4 Main.o
 .text._ZN2xf6VectorIjE7getSizeEv.isra.0
                0x00000000018011d4        0x4 Main.o
 .text._ZN4code4FuncIvLj58895284EJPvEEclES1_.isra.0
                0x00000000018011d8       0x10 Main.o
 .text._ZN4code3Mem2asIjEERT_v.isra.0
                0x00000000018011e8        0x4 Main.o
 .text._ZN4XRay9getModuleEv.isra.0
                0x00000000018011ec        0x4 Main.o
 .text._ZN4XRay11renderBlockEP13BlockRendererP10BlockStatePN2mc5LevelERKNS4_8BlockPosE.isra.0
                0x00000000018011f0       0x18 Main.o
 .text._ZN11SeeNameTags9getModuleEv.isra.0
                0x0000000001801208        0x4 Main.o
 .text._ZN8Scaffold9getModuleEv.isra.0
                0x000000000180120c        0x4 Main.o
 .text._ZN8KillAura9getModuleEv.isra.0
                0x0000000001801210        0x4 Main.o
 .text._ZN8KillAura9getPlayerEv.isra.0
                0x0000000001801214        0x4 Main.o
 .text._ZN8KillAura10getMaxDistEv.isra.0
                0x0000000001801218        0x4 Main.o
 .text._ZN10KeyStrokes9getModuleEv.isra.0
                0x000000000180121c        0x4 Main.o
 .text._ZN5Jesus9getModuleEv.isra.0
                0x0000000001801220        0x4 Main.o
 .text._ZN5Jesus6getPtrEv.isra.0
                0x0000000001801224        0x4 Main.o
 .text._Z69my_getClipAABB__11LiquidBlockFPC10BlockStateP11LevelSourceRC8BlockPosv
                0x0000000001801228       0x30 Main.o
                0x0000000001801228                _Z69my_getClipAABB__11LiquidBlockFPC10BlockStateP11LevelSourceRC8BlockPosv
 .text._ZN15HealthIndicator9getModuleEv.isra.0
                0x0000000001801258        0x4 Main.o
 .text._ZZN15HealthIndicator12HealthSliderC4EvENKUlP6SliderIiEE1_cvPFvS3_EEv.isra.0
                0x000000000180125c        0xc Main.o
 .text._ZZN15HealthIndicator12HealthSliderC4EvENKUlP6SliderIiEE0_cvPFvS3_EEv.isra.0
                0x0000000001801268        0xc Main.o
 .text._ZZN15HealthIndicator12HealthSliderC4EvENKUlP6SliderIiEE_cvPFN4mstd7wstringES3_EEv.isra.0
                0x0000000001801274        0xc Main.o
 .text._ZN22FriendsOfFriendsBypass9getModuleEv.isra.0
                0x0000000001801280        0x4 Main.o
 .text._ZN6Flight9getModuleEv.isra.0
                0x0000000001801284        0x4 Main.o
 .text._ZN3ESP8getColorEv.isra.0
                0x0000000001801288        0x4 Main.o
 .text._ZN3ESP9getModuleEv.isra.0
                0x000000000180128c        0x4 Main.o
 .text._ZZN3ESPC4EvENKUlP6ModuleE_cvPFvS1_EEv.isra.0
                0x0000000001801290        0xc Main.o
 .text._ZZZN3ESPC4EvENKUlP6ModuleE_clES1_ENKUlPvbE_cvPFiS3_bEEv.isra.0
                0x000000000180129c        0xc Main.o
 .text._ZN9CustomSky10getImageIDEv.isra.0
                0x00000000018012a8        0x4 Main.o
 .text._ZN9CustomSky9getModuleEv.isra.0
                0x00000000018012ac        0x4 Main.o
 .text._ZN10CustomChat9getModuleEv.isra.0
                0x00000000018012b0        0x4 Main.o
 .text._ZN6Client6getFPSEv.isra.0
                0x00000000018012b4        0x4 Main.o
 .text._ZN6Client7getNameEv.isra.0
                0x00000000018012b8        0x4 Main.o
 .text._ZN8ChestESP9getModuleEv.isra.0
                0x00000000018012bc        0x4 Main.o
 .text._ZN8ChestESP8getColorEv.isra.0
                0x00000000018012c0        0x4 Main.o
 .text._ZZN8ChestESPC4EvENKUlP6ModuleE_cvPFvS1_EEv.isra.0
                0x00000000018012c4        0xc Main.o
 .text._ZZZN8ChestESPC4EvENKUlP6ModuleE_clES1_ENKUlPvbE_cvPFiS3_bEEv.isra.0
                0x00000000018012d0        0xc Main.o
 .text._ZN8AntiKick9getModuleEv.isra.0
                0x00000000018012dc        0x4 Main.o
 .text._ZN6Aimbot17getSelectedEntityEv.isra.0
                0x00000000018012e0        0x4 Main.o
 .text._ZN6Aimbot9getModuleEv.isra.0
                0x00000000018012e4        0x4 Main.o
 .text._ZZN6Aimbot11RangeSliderC4EvENKUlP6SliderIiEE1_cvPFvS3_EEv.isra.0
                0x00000000018012e8        0xc Main.o
 .text._ZZN6Aimbot11RangeSliderC4EvENKUlP6SliderIiEE0_cvPFvS3_EEv.isra.0
                0x00000000018012f4        0xc Main.o
 .text._ZZN6Aimbot11RangeSliderC4EvENKUlP6SliderIiEE_cvPFN4mstd7wstringES3_EEv.isra.0
                0x0000000001801300        0xc Main.o
 .text._ZN6Module9getSliderEv.isra.0
                0x000000000180130c        0x4 Main.o
 .text._ZN6Module12getPageIndexEv.isra.0
                0x0000000001801310        0x4 Main.o
 .text._ZN6Module10selctedIntEv.isra.0
                0x0000000001801314        0x4 Main.o
 .text._ZN6Module8getStateEv.isra.0
                0x0000000001801318        0x4 Main.o
 .text._Z29my_renderDebug__9MinecraftSFvv
                0x000000000180131c       0x4c Main.o
                0x000000000180131c                _Z29my_renderDebug__9MinecraftSFvv
 .text._Z50my_IsInPublicJoinableGame__19CGameNetworkManagerFvPv
                0x0000000001801368       0x54 Main.o
                0x0000000001801368                _Z50my_IsInPublicJoinableGame__19CGameNetworkManagerFvPv
 .text._ZN6Module7getTypeEv.isra.0
                0x00000000018013bc        0x4 Main.o
 .text._ZN6Module8isSliderEv.isra.0
                0x00000000018013c0       0x2c Main.o
 .text._ZN6Module7getNameEv.isra.0
                0x00000000018013ec        0x4 Main.o
 .text._ZN2mc6CInput15RequestKeyboardEPKwS2_jjPFiPvbES3_i.isra.0
                0x00000000018013f0        0x4 Main.o
 .text._ZN4code3MemC2Ej
                0x00000000018013f4        0x8 Main.o
                0x00000000018013f4                _ZN4code3MemC2Ej
                0x00000000018013f4                _ZN4code3MemC1Ej
 .text._Z10targetAddrj
                0x00000000018013fc       0x44 Main.o
                0x00000000018013fc                _Z10targetAddrj
 .text._Z12InitTCPGeckov
                0x0000000001801440       0x44 Main.o
                0x0000000001801440                _Z12InitTCPGeckov
 .text._Z7_deletePv
                0x0000000001801484        0x4 Main.o
                0x0000000001801484                _Z7_deletePv
 .text._ZdlPv   0x0000000001801488       0x20 Main.o
                0x0000000001801488                _ZdlPv
 .text._Z8writeMemjj
                0x00000000018014a8       0x34 Main.o
                0x00000000018014a8                _Z8writeMemjj
 .text._Z8branchTojPv
                0x00000000018014dc       0x1c Main.o
                0x00000000018014dc                _Z8branchTojPv
 .text._Z21setupRealInstructionsPjj
                0x00000000018014f8       0x98 Main.o
                0x00000000018014f8                _Z21setupRealInstructionsPjj
 .text._Z5_TESTjji
                0x0000000001801590       0xcc Main.o
                0x0000000001801590                _Z5_TESTjji
 .text._Z27InitLibCurlFunctionPointersv
                0x000000000180165c      0x130 Main.o
                0x000000000180165c                _Z27InitLibCurlFunctionPointersv
 .text._Z26InitSocketFunctionPointersv
                0x000000000180178c      0x3c4 Main.o
                0x000000000180178c                _Z26InitSocketFunctionPointersv
 .text._Z24InitVPadFunctionPointersv
                0x0000000001801b50       0xa0 Main.o
                0x0000000001801b50                _Z24InitVPadFunctionPointersv
 .text._Z23InitGX2FunctionPointersv
                0x0000000001801bf0       0x70 Main.o
                0x0000000001801bf0                _Z23InitGX2FunctionPointersv
 .text._Z26InitKernelFunctionPointersv
                0x0000000001801c60       0xd0 Main.o
                0x0000000001801c60                _Z26InitKernelFunctionPointersv
 .text._Z22InitOSFunctionPointersv
                0x0000000001801d30      0x310 Main.o
                0x0000000001801d30                _Z22InitOSFunctionPointersv
 .text._Z26InitMemoryFunctionPointersv
                0x0000000001802040      0x22c Main.o
                0x0000000001802040                _Z26InitMemoryFunctionPointersv
 .text._Z16memoryInitializev
                0x000000000180226c       0xf4 Main.o
                0x000000000180226c                _Z16memoryInitializev
 .text._ZN2mc5Block17defaultBlockStateEv
                0x0000000001802360        0x4 Main.o
                0x0000000001802360                _ZN2mc5Block17defaultBlockStateEv
 .text._ZN2mc5Block4byIdEi
                0x0000000001802364        0x4 Main.o
                0x0000000001802364                _ZN2mc5Block4byIdEi
 .text._ZN2mc6CInput8GetInputEv
                0x0000000001802368       0x38 Main.o
                0x0000000001802368                _ZN2mc6CInput8GetInputEv
 .text._ZZ6c_mainPvENKUlP6ModuleE2_clES1_.constprop.0
                0x00000000018023a0       0x78 Main.o
 .text._ZZ6c_mainPvENUlP6ModuleE2_4_FUNES1_
                0x0000000001802418        0x4 Main.o
 .text._ZN2mc6CInput7GetTextEPKwi
                0x000000000180241c        0x4 Main.o
                0x000000000180241c                _ZN2mc6CInput7GetTextEPKwi
 .text._ZN4mstd7wstringC2EPKw
                0x0000000001802420        0x4 Main.o
                0x0000000001802420                _ZN4mstd7wstringC2EPKw
                0x0000000001802420                _ZN4mstd7wstringC1EPKw
 .text._ZN6SliderIiE17onDefaultDrawFuncEPS0_
                0x0000000001802424       0x2c Main.o
                0x0000000001802424                _ZN6SliderIiE17onDefaultDrawFuncEPS0_
 .text._ZZN15HealthIndicator12HealthSliderC4EvENKUlP6SliderIiEE_clES3_.isra.0
                0x0000000001802450       0xa8 Main.o
 .text._ZZN15HealthIndicator12HealthSliderC4EvENUlP6SliderIiEE_4_FUNES3_
                0x00000000018024f8       0x24 Main.o
                0x00000000018024f8                _ZZN15HealthIndicator12HealthSliderC4EvENUlP6SliderIiEE_4_FUNES3_
 .text._ZNK4mstd7wstring5c_strEv
                0x000000000180251c       0x1c Main.o
                0x000000000180251c                _ZNK4mstd7wstring5c_strEv
 .text._ZN2mc13CMinecraftApp17getSkinPathFromIdEPvj
                0x0000000001802538        0x4 Main.o
                0x0000000001802538                _ZN2mc13CMinecraftApp17getSkinPathFromIdEPvj
 .text._ZN2mc19ConsoleUIController11getInstanceEv
                0x000000000180253c        0xc Main.o
                0x000000000180253c                _ZN2mc19ConsoleUIController11getInstanceEv
 .text._ZN2mc19ConsoleUIController9PlayUISFXEPNS_10SoundEventE
                0x0000000001802548        0x4 Main.o
                0x0000000001802548                _ZN2mc19ConsoleUIController9PlayUISFXEPNS_10SoundEventE
 .text._ZN2mc6System22processTimeInMilliSecsEv
                0x000000000180254c        0x4 Main.o
                0x000000000180254c                _ZN2mc6System22processTimeInMilliSecsEv
 .text._ZN2mc8Textures11loadTextureEPNS_13BufferedImageEi
                0x0000000001802550        0x4 Main.o
                0x0000000001802550                _ZN2mc8Textures11loadTextureEPNS_13BufferedImageEi
 .text._ZN2mc8Textures4bindEi
                0x0000000001802554        0x4 Main.o
                0x0000000001802554                _ZN2mc8Textures4bindEi
 .text._ZN2mc8Textures14loadMemTextureERKN4mstd7wstringEi
                0x0000000001802558        0x4 Main.o
                0x0000000001802558                _ZN2mc8Textures14loadMemTextureERKN4mstd7wstringEi
 .text._ZN2mc8Textures9reloadallEv
                0x000000000180255c        0x4 Main.o
                0x000000000180255c                _ZN2mc8Textures9reloadallEv
 .text._ZN2mc13C4JThreadImplC2EPFiPvES1_PKci
                0x0000000001802560        0x4 Main.o
                0x0000000001802560                _ZN2mc13C4JThreadImplC2EPFiPvES1_PKci
                0x0000000001802560                _ZN2mc13C4JThreadImplC1EPFiPvES1_PKci
 .text._ZN2mc13C4JThreadImpl15SetDeleteOnExitEb
                0x0000000001802564        0x4 Main.o
                0x0000000001802564                _ZN2mc13C4JThreadImpl15SetDeleteOnExitEb
 .text._ZN2mc13C4JThreadImpl3RunEv
                0x0000000001802568        0x4 Main.o
                0x0000000001802568                _ZN2mc13C4JThreadImpl3RunEv
 .text._ZN2mc9Minecraft11getInstanceEv
                0x000000000180256c        0x4 Main.o
                0x000000000180256c                _ZN2mc9Minecraft11getInstanceEv
 .text._ZZ6c_mainPvENKUlP6ModuleE1_clES1_.constprop.0
                0x0000000001802570       0x24 Main.o
 .text._ZZ6c_mainPvENUlP6ModuleE1_4_FUNES1_
                0x0000000001802594        0x4 Main.o
 .text._ZN2mc9Minecraft8getLevelEi
                0x0000000001802598        0x4 Main.o
                0x0000000001802598                _ZN2mc9Minecraft8getLevelEi
 .text._ZN2mc9Minecraft13getConnectionEi
                0x000000000180259c        0x4 Main.o
                0x000000000180259c                _ZN2mc9Minecraft13getConnectionEi
 .text._ZN2mc9Inventory11getSelectedEv
                0x00000000018025a0        0x4 Main.o
                0x00000000018025a0                _ZN2mc9Inventory11getSelectedEv
 .text._ZN2mc8BlockPosC2Eiii
                0x00000000018025a4        0x4 Main.o
                0x00000000018025a4                _ZN2mc8BlockPosC2Eiii
                0x00000000018025a4                _ZN2mc8BlockPosC1Eiii
 .text._ZN2mc5toIntEf
                0x00000000018025a8       0x60 Main.o
                0x00000000018025a8                _ZN2mc5toIntEf
 .text._ZN2mc7toFloatEi
                0x0000000001802608       0xa4 Main.o
                0x0000000001802608                _ZN2mc7toFloatEi
 .text._ZN2mc4Vec3C2Eiii
                0x00000000018026ac       0x60 Main.o
                0x00000000018026ac                _ZN2mc4Vec3C1Eiii
                0x00000000018026ac                _ZN2mc4Vec3C2Eiii
 .text._ZN2mc4Vec38distanceES0_
                0x000000000180270c       0x40 Main.o
                0x000000000180270c                _ZN2mc4Vec38distanceES0_
 .text._ZN2mc6Entity12getEyeHeightEv
                0x000000000180274c        0x4 Main.o
                0x000000000180274c                _ZN2mc6Entity12getEyeHeightEv
 .text._ZN2mc6Entity4typeEv
                0x0000000001802750       0x10 Main.o
                0x0000000001802750                _ZN2mc6Entity4typeEv
 .text._ZN2mc12LivingEntity12getMaxHealthEv
                0x0000000001802760        0x4 Main.o
                0x0000000001802760                _ZN2mc12LivingEntity12getMaxHealthEv
 .text._ZN2mc12LivingEntity9getHealthEv
                0x0000000001802764        0x4 Main.o
                0x0000000001802764                _ZN2mc12LivingEntity9getHealthEv
 .text._ZN2mc12LivingEntity7GetTypeEv
                0x0000000001802768        0x4 Main.o
                0x0000000001802768                _ZN2mc12LivingEntity7GetTypeEv
 .text._ZN2mc9PlayerUIDneERKS0_
                0x000000000180276c        0x4 Main.o
                0x000000000180276c                _ZN2mc9PlayerUIDneERKS0_
 .text._ZN2mc6Player14isAllowedToFlyEv
                0x0000000001802770        0x4 Main.o
                0x0000000001802770                _ZN2mc6Player14isAllowedToFlyEv
 .text._ZN2mc6Player12getEyeHeightEv
                0x0000000001802774        0x4 Main.o
                0x0000000001802774                _ZN2mc6Player12getEyeHeightEv
 .text._ZN2mc6Player14isAllowedToUseEPNS_5BlockE
                0x0000000001802778        0x4 Main.o
                0x0000000001802778                _ZN2mc6Player14isAllowedToUseEPNS_5BlockE
 .text._ZN2mc6Player19getAbsorptionAmountEv
                0x000000000180277c        0x4 Main.o
                0x000000000180277c                _ZN2mc6Player19getAbsorptionAmountEv
 .text._ZN2mc6Player23getArmorCoverPercentageEv
                0x0000000001802780        0x4 Main.o
                0x0000000001802780                _ZN2mc6Player23getArmorCoverPercentageEv
 .text._ZN2mc11LocalPlayer11GetGameTypeEv
                0x0000000001802784        0x4 Main.o
                0x0000000001802784                _ZN2mc11LocalPlayer11GetGameTypeEv
 .text._ZN2mc11LocalPlayer5swingEv
                0x0000000001802788        0x8 Main.o
                0x0000000001802788                _ZN2mc11LocalPlayer5swingEv
 .text._ZN2mc12RemotePlayer7GetTypeEv
                0x0000000001802790        0x4 Main.o
                0x0000000001802790                _ZN2mc12RemotePlayer7GetTypeEv
 .text._ZN2mc12RemotePlayer11GetGameTypeEv
                0x0000000001802794        0x4 Main.o
                0x0000000001802794                _ZN2mc12RemotePlayer11GetGameTypeEv
 .text._ZN2mc15AreaEffectCloud7GetTypeEv
                0x0000000001802798        0x4 Main.o
                0x0000000001802798                _ZN2mc15AreaEffectCloud7GetTypeEv
 .text._ZN2mc10ItemEntity7GetTypeEv
                0x000000000180279c        0x4 Main.o
                0x000000000180279c                _ZN2mc10ItemEntity7GetTypeEv
 .text._ZN2mc4ItemC2Ev
                0x00000000018027a0        0x4 Main.o
                0x00000000018027a0                _ZN2mc4ItemC2Ev
                0x00000000018027a0                _ZN2mc4ItemC1Ev
 .text._ZN2mc4Item12isItemABlockEi
                0x00000000018027a4        0x4 Main.o
                0x00000000018027a4                _ZN2mc4Item12isItemABlockEi
 .text._ZN2mc4Item4byIdEi
                0x00000000018027a8        0x4 Main.o
                0x00000000018027a8                _ZN2mc4Item4byIdEi
 .text._ZN2mc4Item5getIdEv
                0x00000000018027ac        0x4 Main.o
                0x00000000018027ac                _ZN2mc4Item5getIdEv
 .text._ZN2mc9BlockItemC2EPNS_5BlockE
                0x00000000018027b0       0x3c Main.o
                0x00000000018027b0                _ZN2mc9BlockItemC1EPNS_5BlockE
                0x00000000018027b0                _ZN2mc9BlockItemC2EPNS_5BlockE
 .text._ZN2mc9BlockItem8mayPlaceEPNS_5LevelERKNS_8BlockPosEPNS_9DirectionERKN8mc_boost10shared_ptrINS_6PlayerEEERKNS9_INS_12ItemInstanceEEE
                0x00000000018027ec        0x4 Main.o
                0x00000000018027ec                _ZN2mc9BlockItem8mayPlaceEPNS_5LevelERKNS_8BlockPosEPNS_9DirectionERKN8mc_boost10shared_ptrINS_6PlayerEEERKNS9_INS_12ItemInstanceEEE
 .text._ZN2mc7ListTagC2Ei
                0x00000000018027f0        0x4 Main.o
                0x00000000018027f0                _ZN2mc7ListTagC1Ei
                0x00000000018027f0                _ZN2mc7ListTagC2Ei
 .text._ZN2mc7ListTag3addEPNS_3TagE
                0x00000000018027f4        0x4 Main.o
                0x00000000018027f4                _ZN2mc7ListTag3addEPNS_3TagE
 .text._ZN2mc11CompoundTagC2Ev
                0x00000000018027f8        0x4 Main.o
                0x00000000018027f8                _ZN2mc11CompoundTagC2Ev
                0x00000000018027f8                _ZN2mc11CompoundTagC1Ev
 .text._ZN2mc11CompoundTag6putIntERKN4mstd7wstringEi
                0x00000000018027fc        0x4 Main.o
                0x00000000018027fc                _ZN2mc11CompoundTag6putIntERKN4mstd7wstringEi
 .text._ZN2mc11CompoundTag9putDoubleERKN4mstd7wstringEd
                0x0000000001802800        0x4 Main.o
                0x0000000001802800                _ZN2mc11CompoundTag9putDoubleERKN4mstd7wstringEd
 .text._ZN2mc11CompoundTag9putStringERKN4mstd7wstringES4_
                0x0000000001802804        0x4 Main.o
                0x0000000001802804                _ZN2mc11CompoundTag9putStringERKN4mstd7wstringES4_
 .text._ZN2mc11CompoundTag8putShortERKN4mstd7wstringEs
                0x0000000001802808        0x4 Main.o
                0x0000000001802808                _ZN2mc11CompoundTag8putShortERKN4mstd7wstringEs
 .text._ZN2mc11CompoundTag3putERKN4mstd7wstringEPNS_3TagE
                0x000000000180280c        0x4 Main.o
                0x000000000180280c                _ZN2mc11CompoundTag3putERKN4mstd7wstringEPNS_3TagE
 .text._ZN2mc11CompoundTag8containsERKN4mstd7wstringE
                0x0000000001802810        0x4 Main.o
                0x0000000001802810                _ZN2mc11CompoundTag8containsERKN4mstd7wstringE
 .text._ZN2mc11CompoundTag7getListERKN4mstd7wstringEi
                0x0000000001802814        0x4 Main.o
                0x0000000001802814                _ZN2mc11CompoundTag7getListERKN4mstd7wstringEi
 .text._ZN2mc12ItemInstanceC2EPNS_4ItemEii
                0x0000000001802818        0x4 Main.o
                0x0000000001802818                _ZN2mc12ItemInstanceC1EPNS_4ItemEii
                0x0000000001802818                _ZN2mc12ItemInstanceC2EPNS_4ItemEii
 .text._ZN2mc12ItemInstance6setTagEPNS_11CompoundTagE
                0x000000000180281c        0x4 Main.o
                0x000000000180281c                _ZN2mc12ItemInstance6setTagEPNS_11CompoundTagE
 .text._ZN2mc12ItemInstance8getCountEv
                0x0000000001802820        0x4 Main.o
                0x0000000001802820                _ZN2mc12ItemInstance8getCountEv
 .text._ZN2mc20ClientPacketListener4sendEN8mc_boost10shared_ptrINS_6PacketEEE
                0x0000000001802824       0x34 Main.o
                0x0000000001802824                _ZN2mc20ClientPacketListener4sendEN8mc_boost10shared_ptrINS_6PacketEEE
 .text._ZN2mc25ServerboundInteractPacketC2ERKN8mc_boost10shared_ptrINS_6EntityEEE
                0x0000000001802858        0x4 Main.o
                0x0000000001802858                _ZN2mc25ServerboundInteractPacketC2ERKN8mc_boost10shared_ptrINS_6EntityEEE
                0x0000000001802858                _ZN2mc25ServerboundInteractPacketC1ERKN8mc_boost10shared_ptrINS_6EntityEEE
 .text._ZN2mc26ServerboundUseItemOnPacketC2ERKNS_8BlockPosEPKNS_9DirectionENS_15InteractionHand16EInteractionHandEfff
                0x000000000180285c        0x4 Main.o
                0x000000000180285c                _ZN2mc26ServerboundUseItemOnPacketC2ERKNS_8BlockPosEPKNS_9DirectionENS_15InteractionHand16EInteractionHandEfff
                0x000000000180285c                _ZN2mc26ServerboundUseItemOnPacketC1ERKNS_8BlockPosEPKNS_9DirectionENS_15InteractionHand16EInteractionHandEfff
 .text._ZN2mc15CraftItemPacketC2Eiii
                0x0000000001802860        0x4 Main.o
                0x0000000001802860                _ZN2mc15CraftItemPacketC2Eiii
                0x0000000001802860                _ZN2mc15CraftItemPacketC1Eiii
 .text._ZN2mc13BufferBuilder5beginEi
                0x0000000001802864        0x4 Main.o
                0x0000000001802864                _ZN2mc13BufferBuilder5beginEi
 .text._ZN2mc13BufferBuilder5colorEii
                0x0000000001802868        0x4 Main.o
                0x0000000001802868                _ZN2mc13BufferBuilder5colorEii
 .text._ZN2mc13BufferBuilder8vertexUVEfffff
                0x000000000180286c        0x4 Main.o
                0x000000000180286c                _ZN2mc13BufferBuilder8vertexUVEfffff
 .text._ZN2mc13BufferBuilder6vertexEfff
                0x0000000001802870        0x4 Main.o
                0x0000000001802870                _ZN2mc13BufferBuilder6vertexEfff
 .text._ZN2mc13BufferBuilder3endEv
                0x0000000001802874        0x4 Main.o
                0x0000000001802874                _ZN2mc13BufferBuilder3endEv
 .text._ZN2mc13BufferedImageC2ERKN4mstd7wstringEbbS4_i
                0x0000000001802878        0x4 Main.o
                0x0000000001802878                _ZN2mc13BufferedImageC1ERKN4mstd7wstringEbbS4_i
                0x0000000001802878                _ZN2mc13BufferedImageC2ERKN4mstd7wstringEbbS4_i
 .text._ZN2mc4Font5widthERKN4mstd7wstringE
                0x000000000180287c        0x4 Main.o
                0x000000000180287c                _ZN2mc4Font5widthERKN4mstd7wstringE
 .text._ZN2mc4Font10drawShadowERKN4mstd7wstringEjjj
                0x0000000001802880        0x4 Main.o
                0x0000000001802880                _ZN2mc4Font10drawShadowERKN4mstd7wstringEjjj
 .text._ZN2mc4Font4drawERKN4mstd7wstringEjjj
                0x0000000001802884        0xc Main.o
                0x0000000001802884                _ZN2mc4Font4drawERKN4mstd7wstringEjjj
 .text._ZN2mc14GlStateManager16disableDepthTestEv
                0x0000000001802890        0x4 Main.o
                0x0000000001802890                _ZN2mc14GlStateManager16disableDepthTestEv
 .text._ZN2mc14GlStateManager15enableDepthTestEv
                0x0000000001802894        0x4 Main.o
                0x0000000001802894                _ZN2mc14GlStateManager15enableDepthTestEv
 .text._ZN2mc14GlStateManager10pushMatrixEv
                0x0000000001802898        0x4 Main.o
                0x0000000001802898                _ZN2mc14GlStateManager10pushMatrixEv
 .text._ZN2mc14GlStateManager6scalefEfff
                0x000000000180289c        0x4 Main.o
                0x000000000180289c                _ZN2mc14GlStateManager6scalefEfff
 .text._ZN2mc14GlStateManager10translatefEfff
                0x00000000018028a0        0x4 Main.o
                0x00000000018028a0                _ZN2mc14GlStateManager10translatefEfff
 .text._ZN2mc14GlStateManager9popMatrixEv
                0x00000000018028a4        0x4 Main.o
                0x00000000018028a4                _ZN2mc14GlStateManager9popMatrixEv
 .text._ZN2mc14GlStateManager14disableTextureEv
                0x00000000018028a8        0x4 Main.o
                0x00000000018028a8                _ZN2mc14GlStateManager14disableTextureEv
 .text._ZN2mc14GlStateManager10genTextureEv
                0x00000000018028ac        0x4 Main.o
                0x00000000018028ac                _ZN2mc14GlStateManager10genTextureEv
 .text._ZN2mc14GlStateManager13enableTextureEv
                0x00000000018028b0        0x4 Main.o
                0x00000000018028b0                _ZN2mc14GlStateManager13enableTextureEv
 .text._ZN2mc14GlStateManager5orthoEdddddd
                0x00000000018028b4        0x4 Main.o
                0x00000000018028b4                _ZN2mc14GlStateManager5orthoEdddddd
 .text._ZN2mc14GlStateManager10matrixModeEj
                0x00000000018028b8        0x4 Main.o
                0x00000000018028b8                _ZN2mc14GlStateManager10matrixModeEj
 .text._ZN2mc14GlStateManager12loadIdentityEv
                0x00000000018028bc        0x4 Main.o
                0x00000000018028bc                _ZN2mc14GlStateManager12loadIdentityEv
 .text._ZN2mc14GlStateManager11disableCullEv
                0x00000000018028c0        0x4 Main.o
                0x00000000018028c0                _ZN2mc14GlStateManager11disableCullEv
 .text._ZN2mc14GlStateManager10enableCullEv
                0x00000000018028c4        0x4 Main.o
                0x00000000018028c4                _ZN2mc14GlStateManager10enableCullEv
 .text._ZN2mc14GlStateManager11enableBlendEv
                0x00000000018028c8        0x4 Main.o
                0x00000000018028c8                _ZN2mc14GlStateManager11enableBlendEv
 .text._ZN2mc14GlStateManager12disableBlendEv
                0x00000000018028cc        0x4 Main.o
                0x00000000018028cc                _ZN2mc14GlStateManager12disableBlendEv
 .text._ZN2mc14GlStateManager9blendFuncEjj
                0x00000000018028d0        0x4 Main.o
                0x00000000018028d0                _ZN2mc14GlStateManager9blendFuncEjj
 .text._ZN2mc14GlStateManager15disableLightingEv
                0x00000000018028d4        0x4 Main.o
                0x00000000018028d4                _ZN2mc14GlStateManager15disableLightingEv
 .text._ZN2mc14GlStateManager7color4fEdddd
                0x00000000018028d8        0x4 Main.o
                0x00000000018028d8                _ZN2mc14GlStateManager7color4fEdddd
 .text._ZN2mc14GlStateManager10disableFogEv
                0x00000000018028dc        0x4 Main.o
                0x00000000018028dc                _ZN2mc14GlStateManager10disableFogEv
 .text._ZN2mc10Tesselator11getInstanceEv
                0x00000000018028e0        0x4 Main.o
                0x00000000018028e0                _ZN2mc10Tesselator11getInstanceEv
 .text._ZN2mc10Tesselator10getBuilderEv
                0x00000000018028e4        0x4 Main.o
                0x00000000018028e4                _ZN2mc10Tesselator10getBuilderEv
 .text._ZN2mc3Gui10addMessageERKN4mstd7wstringEibbbb
                0x00000000018028e8        0x4 Main.o
                0x00000000018028e8                _ZN2mc3Gui10addMessageERKN4mstd7wstringEibbbb
 .text._ZN2mc8GameType5getIdEv
                0x00000000018028ec        0x4 Main.o
                0x00000000018028ec                _ZN2mc8GameType5getIdEv
 .text._Z9mc_wcscpyPKwS0_
                0x00000000018028f0        0x4 Main.o
                0x00000000018028f0                _Z9mc_wcscpyPKwS0_
 .text._Z9mc_wcslenPKw
                0x00000000018028f4        0x4 Main.o
                0x00000000018028f4                _Z9mc_wcslenPKw
 .text._Z5isinfd
                0x00000000018028f8       0x38 Main.o
                0x00000000018028f8                _Z5isinfd
 .text._Z5isnand
                0x0000000001802930       0x34 Main.o
                0x0000000001802930                _Z5isnand
 .text._ZN2mc5Level10getBlockIdEiii
                0x0000000001802964        0x4 Main.o
                0x0000000001802964                _ZN2mc5Level10getBlockIdEiii
 .text._ZN2mc5Level7setDataERKNS_8BlockPosEiib
                0x0000000001802968        0x4 Main.o
                0x0000000001802968                _ZN2mc5Level7setDataERKNS_8BlockPosEiib
 .text._ZN2mc5Level8setBlockERKNS_8BlockPosEjib
                0x000000000180296c        0x4 Main.o
                0x000000000180296c                _ZN2mc5Level8setBlockERKNS_8BlockPosEjib
 .text._ZN2mc5Level15getPlayerByNameERKN8mc_boost10shared_ptrINS_6PlayerEEERKN4mstd7wstringE
                0x0000000001802970        0x4 Main.o
                0x0000000001802970                _ZN2mc5Level15getPlayerByNameERKN8mc_boost10shared_ptrINS_6PlayerEEERKN4mstd7wstringE
 .text._ZN6Module8setStateEb
                0x0000000001802974       0x4c Main.o
                0x0000000001802974                _ZN6Module8setStateEb
 .text._ZN6Module11toggleStateEv
                0x00000000018029c0       0x2c Main.o
                0x00000000018029c0                _ZN6Module11toggleStateEv
 .text._ZN6Module9setEventsEPFvPS_ES2_S2_
                0x00000000018029ec       0x10 Main.o
                0x00000000018029ec                _ZN6Module9setEventsEPFvPS_ES2_S2_
 .text._ZN6Module8getColorEv
                0x00000000018029fc       0x7c Main.o
                0x00000000018029fc                _ZN6Module8getColorEv
 .text._ZN6Module5resetEv
                0x0000000001802a78       0x14 Main.o
                0x0000000001802a78                _ZN6Module5resetEv
 .text._ZN6Module11hasSettingsEv
                0x0000000001802a8c       0x4c Main.o
                0x0000000001802a8c                _ZN6Module11hasSettingsEv
 .text._ZN6Module13isBlackListedEy
                0x0000000001802ad8       0x74 Main.o
                0x0000000001802ad8                _ZN6Module13isBlackListedEy
 .text._ZN6Module9setSliderEPv
                0x0000000001802b4c        0x8 Main.o
                0x0000000001802b4c                _ZN6Module9setSliderEPv
 .text._ZN2xf3GUI10DrawHelper11renderSetupEb
                0x0000000001802b54       0xe4 Main.o
                0x0000000001802b54                _ZN2xf3GUI10DrawHelper11renderSetupEb
 .text._ZN2xf3GUI10DrawHelper14drawRoundedBoxEfffffiii
                0x0000000001802c38      0x3c8 Main.o
                0x0000000001802c38                _ZN2xf3GUI10DrawHelper14drawRoundedBoxEfffffiii
 .text._ZZN2xf3GUI10DrawHelper17drawRoundedBoxImgEfffffijbiENKUlffE_clEff
                0x0000000001803000       0xbc Main.o
                0x0000000001803000                _ZZN2xf3GUI10DrawHelper17drawRoundedBoxImgEfffffijbiENKUlffE_clEff
 .text._ZN2xf3GUI10DrawHelper17drawRoundedBoxImgEfffffijbi
                0x00000000018030bc      0x450 Main.o
                0x00000000018030bc                _ZN2xf3GUI10DrawHelper17drawRoundedBoxImgEfffffijbi
 .text._ZN2xf3GUI10DrawHelper12DisplayBox2DEffffii
                0x000000000180350c      0x138 Main.o
                0x000000000180350c                _ZN2xf3GUI10DrawHelper12DisplayBox2DEffffii
 .text._ZN2xf3GUI10DrawHelper12DisplayBox3DEffffffii
                0x0000000001803644      0x334 Main.o
                0x0000000001803644                _ZN2xf3GUI10DrawHelper12DisplayBox3DEffffffii
 .text._ZN2xf3GUI10DrawHelper5ColorEjjj
                0x0000000001803978       0x14 Main.o
                0x0000000001803978                _ZN2xf3GUI10DrawHelper5ColorEjjj
 .text._ZN2xf3GUI10DrawHelper10HSVToColorEfff
                0x000000000180398c        0x4 Main.o
                0x000000000180398c                _ZN2xf3GUI10DrawHelper10HSVToColorEfff
 .text._ZN2xf3GUI10DrawHelper13getRainbowRGBEi
                0x0000000001803990       0xa0 Main.o
                0x0000000001803990                _ZN2xf3GUI10DrawHelper13getRainbowRGBEi
 .text._ZN2xf3GUI10DrawHelper11DisplayTextEPN2mc4FontERKN4mstd7wstringEfffjb
                0x0000000001803a30       0xc8 Main.o
                0x0000000001803a30                _ZN2xf3GUI10DrawHelper11DisplayTextEPN2mc4FontERKN4mstd7wstringEfffjb
 .text._ZN6Aimbot17setSelectedEntityEPN2mc6EntityE
                0x0000000001803af8        0x8 Main.o
                0x0000000001803af8                _ZN6Aimbot17setSelectedEntityEPN2mc6EntityE
 .text._ZN8ChestESP4drawEddd
                0x0000000001803b00       0xac Main.o
                0x0000000001803b00                _ZN8ChestESP4drawEddd
 .text._Z25hook_ChestRenderer_renderPvRKN8mc_boost10shared_ptrIN2mc11BlockEntityEEEddd
                0x0000000001803bac        0x4 Main.o
                0x0000000001803bac                _Z25hook_ChestRenderer_renderPvRKN8mc_boost10shared_ptrIN2mc11BlockEntityEEEddd
 .text._ZN8ChestESP8setColorEj
                0x0000000001803bb0        0x8 Main.o
                0x0000000001803bb0                _ZN8ChestESP8setColorEj
 .text._ZN6Client10fpsCounterEv
                0x0000000001803bb8       0xc4 Main.o
                0x0000000001803bb8                _ZN6Client10fpsCounterEv
 .text._ZN6Client11getInstanceEv
                0x0000000001803c7c        0xc Main.o
                0x0000000001803c7c                _ZN6Client11getInstanceEv
 .text._ZN6Client6toggleEv
                0x0000000001803c88       0x10 Main.o
                0x0000000001803c88                _ZN6Client6toggleEv
 .text._ZN10CustomChat7getSizeEv
                0x0000000001803c98        0x8 Main.o
                0x0000000001803c98                _ZN10CustomChat7getSizeEv
 .text._ZN9CustomSky10setImageIDEi
                0x0000000001803ca0        0x8 Main.o
                0x0000000001803ca0                _ZN9CustomSky10setImageIDEi
 .text._ZN3ESP8setColorEj
                0x0000000001803ca8        0x8 Main.o
                0x0000000001803ca8                _ZN3ESP8setColorEj
 .text._ZN6Flight6onTickEb
                0x0000000001803cb0       0x94 Main.o
                0x0000000001803cb0                _ZN6Flight6onTickEb
 .text._ZN5Jesus6onTickEv
                0x0000000001803d44       0x80 Main.o
                0x0000000001803d44                _ZN5Jesus6onTickEv
 .text._ZN10KeyStrokes17getPressedButtonsEv
                0x0000000001803dc4        0x8 Main.o
                0x0000000001803dc4                _ZN10KeyStrokes17getPressedButtonsEv
 .text._ZN8KillAura9setPlayerEPN2mc6PlayerE
                0x0000000001803dcc        0x8 Main.o
                0x0000000001803dcc                _ZN8KillAura9setPlayerEPN2mc6PlayerE
 .text._ZZN8Scaffold6onTickEvENKUlvE0_clEv
                0x0000000001803dd4       0x58 Main.o
                0x0000000001803dd4                _ZZN8Scaffold6onTickEvENKUlvE0_clEv
 .text._ZN8Scaffold6getPosEv
                0x0000000001803e2c       0x1c Main.o
                0x0000000001803e2c                _ZN8Scaffold6getPosEv
 .text._ZN8Scaffold6setPosEN2mc8BlockPosE
                0x0000000001803e48       0x1c Main.o
                0x0000000001803e48                _ZN8Scaffold6setPosEN2mc8BlockPosE
 .text._ZN8Scaffold9updatePosEb
                0x0000000001803e64       0xd0 Main.o
                0x0000000001803e64                _ZN8Scaffold9updatePosEb
 .text._Z32my_sendPosition__11LocalPlayerFvPN2mc11LocalPlayerE
                0x0000000001803f34       0x3c Main.o
                0x0000000001803f34                _Z32my_sendPosition__11LocalPlayerFvPN2mc11LocalPlayerE
 .text._ZN4XRay14tesselateBlockEP13BlockRendererP10BlockStatePN2mc5LevelERKNS4_8BlockPosE
                0x0000000001803f70       0x9c Main.o
                0x0000000001803f70                _ZN4XRay14tesselateBlockEP13BlockRendererP10BlockStatePN2mc5LevelERKNS4_8BlockPosE
 .text._Z64my_renderBlock__13BlockRendererFPC10BlockStateP5LevelRC8BlockPosP13BlockRendererP10BlockStatePN2mc5LevelERKNS3_8BlockPosE
                0x000000000180400c        0x4 Main.o
                0x000000000180400c                _Z64my_renderBlock__13BlockRendererFPC10BlockStateP5LevelRC8BlockPosP13BlockRendererP10BlockStatePN2mc5LevelERKNS3_8BlockPosE
 .text._Z4_newIcEPT_j
                0x0000000001804010        0x4 Main.o
                0x0000000001804010                _Z4_newIcEPT_j
 .text._Znwj    0x0000000001804014        0x4 Main.o
                0x0000000001804014                _Znwj
 .text._ZN2xf18ItemInstanceHelper10addEnchantEPN2mc12ItemInstanceEii
                0x0000000001804018      0x188 Main.o
                0x0000000001804018                _ZN2xf18ItemInstanceHelper10addEnchantEPN2mc12ItemInstanceEii
 .text._ZN2xf18ItemInstanceHelper9addAttribEPN2mc12ItemInstanceEidiRKN4mstd7wstringE
                0x00000000018041a0      0x1c4 Main.o
                0x00000000018041a0                _ZN2xf18ItemInstanceHelper9addAttribEPN2mc12ItemInstanceEidiRKN4mstd7wstringE
 .text._Z5_mainv
                0x0000000001804364       0xdc Main.o
                0x0000000001804364                _Z5_mainv
 .text._ZZN2xf3GUI10DrawHelper15DisplayBox3DImgEffffffiENKUliiE_clEii
                0x0000000001804440       0xa0 Main.o
                0x0000000001804440                _ZZN2xf3GUI10DrawHelper15DisplayBox3DImgEffffffiENKUliiE_clEii
 .text._ZN2xf3GUI10DrawHelper15DisplayBox3DImgEffffffi
                0x00000000018044e0      0x428 Main.o
                0x00000000018044e0                _ZN2xf3GUI10DrawHelper15DisplayBox3DImgEffffffi
 .text._ZN9CustomSky4drawEv
                0x0000000001804908      0x1bc Main.o
                0x0000000001804908                _ZN9CustomSky4drawEv
 .text._Z31my_renderSky__13LevelRendererFfPvf
                0x0000000001804ac4       0x54 Main.o
                0x0000000001804ac4                _Z31my_renderSky__13LevelRendererFfPvf
 .text._Z8InitWupsv
                0x0000000001804b18       0x4c Main.o
                0x0000000001804b18                _Z8InitWupsv
 .text._Z4initv
                0x0000000001804b64       0x40 Main.o
                0x0000000001804b64                _Z4initv
 .text._Z11wcharToCharPKwi
                0x0000000001804ba4       0xa8 Main.o
                0x0000000001804ba4                _Z11wcharToCharPKwi
 .text._Z6toCStrfi
                0x0000000001804c4c      0x140 Main.o
                0x0000000001804c4c                _Z6toCStrfi
 .text._ZN2xf6VectorIjEC2Ev
                0x0000000001804d8c       0x10 Main.o
                0x0000000001804d8c                _ZN2xf6VectorIjEC2Ev
                0x0000000001804d8c                _ZN2xf6VectorIjEC1Ev
 .text._ZN2xf6VectorIjE9push_backEj
                0x0000000001804d9c       0xc8 Main.o
                0x0000000001804d9c                _ZN2xf6VectorIjE9push_backEj
 .text._ZN2xf6VectorIjE3endEv
                0x0000000001804e64       0x14 Main.o
                0x0000000001804e64                _ZN2xf6VectorIjE3endEv
 .text._Z16safeInstructionsj
                0x0000000001804e78       0xc4 Main.o
                0x0000000001804e78                _Z16safeInstructionsj
 .text._ZN8mc_boost10shared_ptrIN2mc12ItemInstanceEEC2Ev
                0x0000000001804f3c       0x10 Main.o
                0x0000000001804f3c                _ZN8mc_boost10shared_ptrIN2mc12ItemInstanceEEC2Ev
                0x0000000001804f3c                _ZN8mc_boost10shared_ptrIN2mc12ItemInstanceEEC1Ev
 .text._ZN2mc36ServerboundSetCreativeModeSlotPacketC2EiRKN8mc_boost10shared_ptrINS_12ItemInstanceEEE
                0x0000000001804f4c       0x4c Main.o
                0x0000000001804f4c                _ZN2mc36ServerboundSetCreativeModeSlotPacketC2EiRKN8mc_boost10shared_ptrINS_12ItemInstanceEEE
                0x0000000001804f4c                _ZN2mc36ServerboundSetCreativeModeSlotPacketC1EiRKN8mc_boost10shared_ptrINS_12ItemInstanceEEE
 .text._ZN2xf6VectorIP6ModuleEC2Ev
                0x0000000001804f98       0x10 Main.o
                0x0000000001804f98                _ZN2xf6VectorIP6ModuleEC2Ev
                0x0000000001804f98                _ZN2xf6VectorIP6ModuleEC1Ev
 .text._ZN2xf6VectorIP6ModuleE9push_backES2_
                0x0000000001804fa8       0xc8 Main.o
                0x0000000001804fa8                _ZN2xf6VectorIP6ModuleE9push_backES2_
 .text._ZN6Module19addModuleToSettingsEPS_
                0x0000000001805070        0x8 Main.o
                0x0000000001805070                _ZN6Module19addModuleToSettingsEPS_
 .text._ZN6Module17addModuleToVectorEPS_
                0x0000000001805078       0x14 Main.o
                0x0000000001805078                _ZN6Module17addModuleToVectorEPS_
 .text._ZN6Client7addPageEP6Module.isra.0
                0x000000000180508c        0x4 Main.o
 .text._ZN2xf6VectorIP6ModuleEixEi
                0x0000000001805090       0x20 Main.o
                0x0000000001805090                _ZN2xf6VectorIP6ModuleEixEi
 .text._ZN6Module4downEv
                0x00000000018050b0       0x58 Main.o
                0x00000000018050b0                _ZN6Module4downEv
 .text._ZN6Module2upEv
                0x0000000001805108       0x5c Main.o
                0x0000000001805108                _ZN6Module2upEv
 .text._ZN6SliderIfE8getEventEi
                0x0000000001805164       0x18 Main.o
                0x0000000001805164                _ZN6SliderIfE8getEventEi
 .text._ZN6Module4leftEv
                0x000000000180517c       0xbc Main.o
                0x000000000180517c                _ZN6Module4leftEv
 .text._ZN6Module5rightEv
                0x0000000001805238       0xec Main.o
                0x0000000001805238                _ZN6Module5rightEv
 .text._ZN6SliderIiE11setDrawFuncEPFN4mstd7wstringEPS0_E
                0x0000000001805324        0x8 Main.o
                0x0000000001805324                _ZN6SliderIiE11setDrawFuncEPFN4mstd7wstringEPS0_E
 .text._ZN6SliderIiE10setCurrentEi
                0x000000000180532c        0x8 Main.o
                0x000000000180532c                _ZN6SliderIiE10setCurrentEi
 .text._ZZN15HealthIndicator12HealthSliderC4EvENKUlP6SliderIiEE1_clES3_.isra.0
                0x0000000001805334       0x68 Main.o
 .text._ZZN15HealthIndicator12HealthSliderC4EvENUlP6SliderIiEE1_4_FUNES3_
                0x000000000180539c        0x4 Main.o
                0x000000000180539c                _ZZN15HealthIndicator12HealthSliderC4EvENUlP6SliderIiEE1_4_FUNES3_
 .text._ZZN15HealthIndicator12HealthSliderC4EvENKUlP6SliderIiEE0_clES3_.isra.0
                0x00000000018053a0       0x68 Main.o
 .text._ZZN15HealthIndicator12HealthSliderC4EvENUlP6SliderIiEE0_4_FUNES3_
                0x0000000001805408        0x4 Main.o
                0x0000000001805408                _ZZN15HealthIndicator12HealthSliderC4EvENUlP6SliderIiEE0_4_FUNES3_
 .text._ZZN6Aimbot11RangeSliderC4EvENKUlP6SliderIiEE1_clES3_.isra.0
                0x000000000180540c       0x60 Main.o
 .text._ZZN6Aimbot11RangeSliderC4EvENUlP6SliderIiEE1_4_FUNES3_
                0x000000000180546c        0x4 Main.o
                0x000000000180546c                _ZZN6Aimbot11RangeSliderC4EvENUlP6SliderIiEE1_4_FUNES3_
 .text._ZZN6Aimbot11RangeSliderC4EvENKUlP6SliderIiEE0_clES3_.isra.0
                0x0000000001805470       0x60 Main.o
 .text._ZZN6Aimbot11RangeSliderC4EvENUlP6SliderIiEE0_4_FUNES3_
                0x00000000018054d0        0x4 Main.o
                0x00000000018054d0                _ZZN6Aimbot11RangeSliderC4EvENUlP6SliderIiEE0_4_FUNES3_
 .text._ZN6SliderIiE9setEventsEPFvPS0_ES3_
                0x00000000018054d4        0xc Main.o
                0x00000000018054d4                _ZN6SliderIiE9setEventsEPFvPS0_ES3_
 .text._ZN6SliderIiEC2Eiiii
                0x00000000018054e0       0x54 Main.o
                0x00000000018054e0                _ZN6SliderIiEC2Eiiii
                0x00000000018054e0                _ZN6SliderIiEC1Eiiii
 .text._ZN6Aimbot11RangeSliderC2Ev
                0x0000000001805534       0x68 Main.o
                0x0000000001805534                _ZN6Aimbot11RangeSliderC1Ev
                0x0000000001805534                _ZN6Aimbot11RangeSliderC2Ev
 .text._ZN15HealthIndicator12HealthSliderC2Ev
                0x000000000180559c       0x68 Main.o
                0x000000000180559c                _ZN15HealthIndicator12HealthSliderC1Ev
                0x000000000180559c                _ZN15HealthIndicator12HealthSliderC2Ev
 .text._Z9mc_printfIJEEvPKwDpT_
                0x0000000001805604       0x70 Main.o
                0x0000000001805604                _Z9mc_printfIJEEvPKwDpT_
 .text._ZN8AntiKick6onKickEN2mc16DisconnectPacket17eDisconnectReasonE
                0x0000000001805674       0x60 Main.o
                0x0000000001805674                _ZN8AntiKick6onKickEN2mc16DisconnectPacket17eDisconnectReasonE
 .text._Z92my_handleDisconnect__20ClientPacketListenerFQ2_5boost37shared_ptr__tm__19_16DisconnectPacketPN2mc20ClientPacketListenerERKN8mc_boost10shared_ptrINS_16DisconnectPacketEEE
                0x00000000018056d4       0x58 Main.o
                0x00000000018056d4                _Z92my_handleDisconnect__20ClientPacketListenerFQ2_5boost37shared_ptr__tm__19_16DisconnectPacketPN2mc20ClientPacketListenerERKN8mc_boost10shared_ptrINS_16DisconnectPacketEEE
 .text._ZN6SliderIiE14onDefaultEventEPS0_
                0x000000000180572c        0xc Main.o
                0x000000000180572c                _ZN6SliderIiE14onDefaultEventEPS0_
 .text._ZZ6c_mainPvENKUlP6ModuleE_clES1_.constprop.0
                0x0000000001805738       0x48 Main.o
 .text._ZZ6c_mainPvENUlP6ModuleE_4_FUNES1_
                0x0000000001805780        0x4 Main.o
 .text._ZN2xf6StringIwEC2EPKw
                0x0000000001805784       0xa4 Main.o
                0x0000000001805784                _ZN2xf6StringIwEC1EPKw
                0x0000000001805784                _ZN2xf6StringIwEC2EPKw
 .text._ZN2xf6StringIwE8intToStrEi
                0x0000000001805828       0x50 Main.o
                0x0000000001805828                _ZN2xf6StringIwE8intToStrEi
 .text._ZZN6Aimbot11RangeSliderC4EvENKUlP6SliderIiEE_clES3_.isra.0
                0x0000000001805878       0x40 Main.o
 .text._ZZN6Aimbot11RangeSliderC4EvENUlP6SliderIiEE_4_FUNES3_
                0x00000000018058b8       0x28 Main.o
                0x00000000018058b8                _ZZN6Aimbot11RangeSliderC4EvENUlP6SliderIiEE_4_FUNES3_
 .text._ZN2xf6StringIwE11intToHexStrEji
                0x00000000018058e0       0x60 Main.o
                0x00000000018058e0                _ZN2xf6StringIwE11intToHexStrEji
 .text._ZZN3ESPC4EvENKUlP6ModuleE_clES1_.isra.0
                0x0000000001805940       0x80 Main.o
 .text._ZZN3ESPC4EvENUlP6ModuleE_4_FUNES1_
                0x00000000018059c0        0x4 Main.o
                0x00000000018059c0                _ZZN3ESPC4EvENUlP6ModuleE_4_FUNES1_
 .text._ZZN8ChestESPC4EvENKUlP6ModuleE_clES1_.isra.0
                0x00000000018059c4       0x80 Main.o
 .text._ZZN8ChestESPC4EvENUlP6ModuleE_4_FUNES1_
                0x0000000001805a44        0x4 Main.o
                0x0000000001805a44                _ZZN8ChestESPC4EvENUlP6ModuleE_4_FUNES1_
 .text._ZN2xf6VectorIN10CustomChat9ChatEntryEEC2Ev
                0x0000000001805a48       0x10 Main.o
                0x0000000001805a48                _ZN2xf6VectorIN10CustomChat9ChatEntryEEC2Ev
                0x0000000001805a48                _ZN2xf6VectorIN10CustomChat9ChatEntryEEC1Ev
 .text._ZN2xf6VectorIN10CustomChat9ChatEntryEE10push_frontES2_
                0x0000000001805a58       0xd8 Main.o
                0x0000000001805a58                _ZN2xf6VectorIN10CustomChat9ChatEntryEE10push_frontES2_
 .text._ZN10CustomChat10addMessageEPKw
                0x0000000001805b30       0x4c Main.o
                0x0000000001805b30                _ZN10CustomChat10addMessageEPKw
 .text._ZN10CustomChat11addMessageSEPKw
                0x0000000001805b7c       0x58 Main.o
                0x0000000001805b7c                _ZN10CustomChat11addMessageSEPKw
 .text._Z114my_addMessage__3GuiFRCQ2_3std78basic_string__tm__58_wQ2_3std20char_traits__tm__2_wQ2_3std18allocator__tm__2_wibN33PN2mc3GuiERKN4mstd7wstringEibbbb
                0x0000000001805bd4       0x90 Main.o
                0x0000000001805bd4                _Z114my_addMessage__3GuiFRCQ2_3std78basic_string__tm__58_wQ2_3std20char_traits__tm__2_wQ2_3std18allocator__tm__2_wibN33PN2mc3GuiERKN4mstd7wstringEibbbb
 .text._ZN2xf6VectorIN10CustomChat9ChatEntryEE8pop_backEv
                0x0000000001805c64       0x10 Main.o
                0x0000000001805c64                _ZN2xf6VectorIN10CustomChat9ChatEntryEE8pop_backEv
 .text._ZN10CustomChat3popEv
                0x0000000001805c74        0x8 Main.o
                0x0000000001805c74                _ZN10CustomChat3popEv
 .text._ZN2xf6VectorIN10CustomChat9ChatEntryEEixEi
                0x0000000001805c7c       0x20 Main.o
                0x0000000001805c7c                _ZN2xf6VectorIN10CustomChat9ChatEntryEEixEi
 .text._ZN10CustomChat2atEi
                0x0000000001805c9c        0x8 Main.o
                0x0000000001805c9c                _ZN10CustomChat2atEi
 .text._ZN10CustomChat8drawChatEv
                0x0000000001805ca4      0x1c0 Main.o
                0x0000000001805ca4                _ZN10CustomChat8drawChatEv
 .text._ZN8mc_boost10shared_ptrIN2mc6PlayerEEC2Ev
                0x0000000001805e64       0x10 Main.o
                0x0000000001805e64                _ZN8mc_boost10shared_ptrIN2mc6PlayerEEC1Ev
                0x0000000001805e64                _ZN8mc_boost10shared_ptrIN2mc6PlayerEEC2Ev
 .text._ZN15HealthIndicator9getPlayerERKN4mstd7wstringE
                0x0000000001805e74       0x68 Main.o
                0x0000000001805e74                _ZN15HealthIndicator9getPlayerERKN4mstd7wstringE
 .text._ZN2xf6VectorIN4mstd4pairIjfEEEC2Ev
                0x0000000001805edc       0x10 Main.o
                0x0000000001805edc                _ZN2xf6VectorIN4mstd4pairIjfEEEC1Ev
                0x0000000001805edc                _ZN2xf6VectorIN4mstd4pairIjfEEEC2Ev
 .text._ZN2xf6VectorIN4mstd4pairIjfEEE9push_backES3_
                0x0000000001805eec       0xe4 Main.o
                0x0000000001805eec                _ZN2xf6VectorIN4mstd4pairIjfEEE9push_backES3_
 .text._ZN2xf6VectorIN4mstd4pairIjfEEE9pop_frontEv
                0x0000000001805fd0       0x5c Main.o
                0x0000000001805fd0                _ZN2xf6VectorIN4mstd4pairIjfEEE9pop_frontEv
 .text._ZN2xf6VectorIN4mstd4pairIjfEEEixEi
                0x000000000180602c       0x20 Main.o
                0x000000000180602c                _ZN2xf6VectorIN4mstd4pairIjfEEEixEi
 .text._ZN10KeyStrokes7drawKeyEiijfi
                0x000000000180604c      0x414 Main.o
                0x000000000180604c                _ZN10KeyStrokes7drawKeyEiijfi
 .text._ZN10KeyStrokes4drawEv
                0x0000000001806460      0x178 Main.o
                0x0000000001806460                _ZN10KeyStrokes4drawEv
 .text._ZN8mc_boost10shared_ptrIN2mc6EntityEEC2EPS2_
                0x00000000018065d8       0x10 Main.o
                0x00000000018065d8                _ZN8mc_boost10shared_ptrIN2mc6EntityEEC2EPS2_
                0x00000000018065d8                _ZN8mc_boost10shared_ptrIN2mc6EntityEEC1EPS2_
 .text._ZN8mc_boost10shared_ptrIN2mc6PacketEEC2EPS2_
                0x00000000018065e8       0x10 Main.o
                0x00000000018065e8                _ZN8mc_boost10shared_ptrIN2mc6PacketEEC1EPS2_
                0x00000000018065e8                _ZN8mc_boost10shared_ptrIN2mc6PacketEEC2EPS2_
 .text._ZZN8Scaffold6onTickEvENKUliiiE1_clEiii
                0x00000000018065f8      0x194 Main.o
                0x00000000018065f8                _ZZN8Scaffold6onTickEvENKUliiiE1_clEiii
 .text._ZZ6c_mainPvENKUlP6ModuleE0_clES1_.constprop.0
                0x000000000180678c       0xfc Main.o
 .text._ZZ6c_mainPvENUlP6ModuleE0_4_FUNES1_
                0x0000000001806888        0x4 Main.o
 .text._ZN8mc_boost10shared_ptrIN2mc6PlayerEEC2EPS2_
                0x000000000180688c       0x10 Main.o
                0x000000000180688c                _ZN8mc_boost10shared_ptrIN2mc6PlayerEEC1EPS2_
                0x000000000180688c                _ZN8mc_boost10shared_ptrIN2mc6PlayerEEC2EPS2_
 .text._ZN8mc_boost10shared_ptrIN2mc12ItemInstanceEEC2EPS2_
                0x000000000180689c       0x10 Main.o
                0x000000000180689c                _ZN8mc_boost10shared_ptrIN2mc12ItemInstanceEEC2EPS2_
                0x000000000180689c                _ZN8mc_boost10shared_ptrIN2mc12ItemInstanceEEC1EPS2_
 .text._ZZN8Scaffold6onTickEvENKUliiiE_clEiii
                0x00000000018068ac       0xa0 Main.o
                0x00000000018068ac                _ZZN8Scaffold6onTickEvENKUliiiE_clEiii
 .text._ZN8Scaffold6onTickEv
                0x000000000180694c      0x324 Main.o
                0x000000000180694c                _ZN8Scaffold6onTickEv
 .text._ZZ6c_mainPvENKUlP6ModuleE3_clES1_.constprop.0
                0x0000000001806c70      0x17c Main.o
 .text._ZZ6c_mainPvENUlP6ModuleE3_4_FUNES1_
                0x0000000001806dec        0x4 Main.o
 .text._Z9mc_printfIJPwEEvPKwDpT_
                0x0000000001806df0       0x78 Main.o
                0x0000000001806df0                _Z9mc_printfIJPwEEvPKwDpT_
 .text._ZZZ6c_mainPvENKUlP6ModuleE2_clES1_ENKUlS_bE_clES_b.constprop.0
                0x0000000001806e68       0x58 Main.o
 .text._ZZZ6c_mainPvENKUlP6ModuleE2_clES1_ENUlS_bE_4_FUNES_b
                0x0000000001806ec0        0x4 Main.o
 .text._ZN2xf6VectorIPPvE9push_backES2_
                0x0000000001806ec4       0xc8 Main.o
                0x0000000001806ec4                _ZN2xf6VectorIPPvE9push_backES2_
 .text._ZZ6c_mainPvENKUlvE14_clEv.constprop.0
                0x0000000001806f8c       0x7c Main.o
 .text._ZZ6c_mainPvENKUlvE13_clEv.constprop.0
                0x0000000001807008       0x7c Main.o
 .text._ZZ6c_mainPvENKUlvE12_clEv.constprop.0
                0x0000000001807084       0x7c Main.o
 .text._ZZ6c_mainPvENKUlvE11_clEv.constprop.0
                0x0000000001807100       0x7c Main.o
 .text._ZZ6c_mainPvENKUlvE10_clEv.constprop.0
                0x000000000180717c       0x7c Main.o
 .text._ZZ6c_mainPvENKUlvE9_clEv.constprop.0
                0x00000000018071f8       0x7c Main.o
 .text._ZZ6c_mainPvENKUlvE8_clEv.constprop.0
                0x0000000001807274       0x7c Main.o
 .text._ZZ6c_mainPvENKUlvE7_clEv.constprop.0
                0x00000000018072f0       0x7c Main.o
 .text._ZZ6c_mainPvENKUlvE6_clEv.constprop.0
                0x000000000180736c       0x7c Main.o
 .text._ZZ6c_mainPvENKUlvE5_clEv.constprop.0
                0x00000000018073e8       0x7c Main.o
 .text._ZZ6c_mainPvENKUlvE4_clEv.constprop.0
                0x0000000001807464       0x7c Main.o
 .text._ZN2xf6VectorIP6ModuleE5clearEv
                0x00000000018074e0       0x3c Main.o
                0x00000000018074e0                _ZN2xf6VectorIP6ModuleE5clearEv
 .text._ZNK2xf6VectorIP6ModuleE3endEv
                0x000000000180751c       0x14 Main.o
                0x000000000180751c                _ZNK2xf6VectorIP6ModuleE3endEv
 .text._ZN2xf6VectorIP6ModuleEaSERKS3_.isra.0
                0x0000000001807530       0x58 Main.o
 .text._ZN6ModuleC2EPKwNS_4TypeE
                0x0000000001807588       0xc0 Main.o
                0x0000000001807588                _ZN6ModuleC1EPKwNS_4TypeE
                0x0000000001807588                _ZN6ModuleC2EPKwNS_4TypeE
 .text._ZN6ClientC2EPKw
                0x0000000001807648       0xa4 Main.o
                0x0000000001807648                _ZN6ClientC2EPKw
                0x0000000001807648                _ZN6ClientC1EPKw
 .text._ZN3ESPC2Ev
                0x00000000018076ec      0x16c Main.o
                0x00000000018076ec                _ZN3ESPC2Ev
                0x00000000018076ec                _ZN3ESPC1Ev
 .text._ZN8ChestESPC2Ev
                0x0000000001807858       0xb8 Main.o
                0x0000000001807858                _ZN8ChestESPC1Ev
                0x0000000001807858                _ZN8ChestESPC2Ev
 .text._ZN9CustomSkyC2Ev
                0x0000000001807910       0x64 Main.o
                0x0000000001807910                _ZN9CustomSkyC2Ev
                0x0000000001807910                _ZN9CustomSkyC1Ev
 .text._ZN6FlightC2Ev
                0x0000000001807974       0x5c Main.o
                0x0000000001807974                _ZN6FlightC2Ev
                0x0000000001807974                _ZN6FlightC1Ev
 .text._ZN6AimbotC2Ev
                0x00000000018079d0      0x15c Main.o
                0x00000000018079d0                _ZN6AimbotC2Ev
                0x00000000018079d0                _ZN6AimbotC1Ev
 .text._ZN8AntiKickC2Ev
                0x0000000001807b2c       0x5c Main.o
                0x0000000001807b2c                _ZN8AntiKickC1Ev
                0x0000000001807b2c                _ZN8AntiKickC2Ev
 .text._ZN8KillAuraC2Ev
                0x0000000001807b88       0xe8 Main.o
                0x0000000001807b88                _ZN8KillAuraC1Ev
                0x0000000001807b88                _ZN8KillAuraC2Ev
 .text._ZN5JesusC2Ev
                0x0000000001807c70       0x68 Main.o
                0x0000000001807c70                _ZN5JesusC1Ev
                0x0000000001807c70                _ZN5JesusC2Ev
 .text._ZN8ScaffoldC2Ev
                0x0000000001807cd8       0x88 Main.o
                0x0000000001807cd8                _ZN8ScaffoldC2Ev
                0x0000000001807cd8                _ZN8ScaffoldC1Ev
 .text._ZN15HealthIndicatorC2Ev
                0x0000000001807d60       0xf4 Main.o
                0x0000000001807d60                _ZN15HealthIndicatorC2Ev
                0x0000000001807d60                _ZN15HealthIndicatorC1Ev
 .text._ZN22FriendsOfFriendsBypassC2Ev
                0x0000000001807e54       0x5c Main.o
                0x0000000001807e54                _ZN22FriendsOfFriendsBypassC1Ev
                0x0000000001807e54                _ZN22FriendsOfFriendsBypassC2Ev
 .text._ZN4XRayC2EPv
                0x0000000001807eb0       0x7c Main.o
                0x0000000001807eb0                _ZN4XRayC1EPv
                0x0000000001807eb0                _ZN4XRayC2EPv
 .text._ZN11SeeNameTagsC2Ev
                0x0000000001807f2c       0x5c Main.o
                0x0000000001807f2c                _ZN11SeeNameTagsC2Ev
                0x0000000001807f2c                _ZN11SeeNameTagsC1Ev
 .text._ZN2xf6VectorIP6ModuleE3endEv
                0x0000000001807f88       0x14 Main.o
                0x0000000001807f88                _ZN2xf6VectorIP6ModuleE3endEv
 .text._ZN2xf6VectorIP6ModuleEC2ERS3_
                0x0000000001807f9c       0x90 Main.o
                0x0000000001807f9c                _ZN2xf6VectorIP6ModuleEC1ERS3_
                0x0000000001807f9c                _ZN2xf6VectorIP6ModuleEC2ERS3_
 .text._ZN6Module13getPageVectorEv
                0x000000000180802c       0x28 Main.o
                0x000000000180802c                _ZN6Module13getPageVectorEv
 .text._ZN6Module12openSettingsEv
                0x0000000001808054       0x74 Main.o
                0x0000000001808054                _ZN6Module12openSettingsEv
 .text._ZN15HealthIndicator7getModeEv
                0x00000000018080c8       0x54 Main.o
                0x00000000018080c8                _ZN15HealthIndicator7getModeEv
 .text._ZN15HealthIndicator24shouldColorBasedOnHealthEv
                0x000000000180811c       0x4c Main.o
                0x000000000180811c                _ZN15HealthIndicator24shouldColorBasedOnHealthEv
 .text._ZN15HealthIndicator5getHPEPN2mc6PlayerE
                0x0000000001808168       0xdc Main.o
                0x0000000001808168                _ZN15HealthIndicator5getHPEPN2mc6PlayerE
 .text._ZN15HealthIndicator11displayNameERKN4mstd7wstringE
                0x0000000001808244       0xc8 Main.o
                0x0000000001808244                _ZN15HealthIndicator11displayNameERKN4mstd7wstringE
 .text._Z151my_renderNameTagInWorld__12GameRendererSFP4FontRCQ2_3std78basic_string__tm__58_wQ2_3std20char_traits__tm__2_wQ2_3std18allocator__tm__2_wfN23iN23bT9T6T3PN2mc4FontERKN4mstd7wstringEfffiffbbif
                0x000000000180830c      0x1bc Main.o
                0x000000000180830c                _Z151my_renderNameTagInWorld__12GameRendererSFP4FontRCQ2_3std78basic_string__tm__58_wQ2_3std20char_traits__tm__2_wQ2_3std18allocator__tm__2_wfN23iN23bT9T6T3PN2mc4FontERKN4mstd7wstringEfffiffbbif
 .text._ZZN6Client8drawMenuEvENKUlP6ModuleiiE0_clES1_ii
                0x00000000018084c8      0x350 Main.o
                0x00000000018084c8                _ZZN6Client8drawMenuEvENKUlP6ModuleiiE0_clES1_ii
 .text._ZN8KillAura16canTargetPlayersEv.isra.0
                0x0000000001808818       0x3c Main.o
 .text._ZN8KillAura17canTargetEntitiesEv.isra.0
                0x0000000001808854       0x3c Main.o
 .text._ZN3ESP11playerColorEv.isra.0
                0x0000000001808890       0x3c Main.o
 .text._ZN3ESP20shouldTargetEntitiesEv.isra.0
                0x00000000018088cc       0x3c Main.o
 .text._ZN3ESP19shouldTargetPlayersEv.isra.0
                0x0000000001808908       0x3c Main.o
 .text._ZN6Client16getCurrentModuleEP6Module.isra.0
                0x0000000001808944       0x58 Main.o
 .text._ZZN6Client8drawMenuEvENKUlbRyS0_E_clEbS0_S0_
                0x000000000180899c      0x11c Main.o
                0x000000000180899c                _ZZN6Client8drawMenuEvENKUlbRyS0_E_clEbS0_S0_
 .text._ZN6Client8drawMenuEv
                0x0000000001808ab8      0x530 Main.o
                0x0000000001808ab8                _ZN6Client8drawMenuEv
 .text._ZN6Client4drawEb
                0x0000000001808fe8      0x144 Main.o
                0x0000000001808fe8                _ZN6Client4drawEb
 .text._Z18hook_onFrameInMenuv
                0x000000000180912c       0x9c Main.o
                0x000000000180912c                _Z18hook_onFrameInMenuv
 .text._ZN6Aimbot14getMaxDistanceEv.isra.0
                0x00000000018091c8       0x48 Main.o
 .text._ZN6Aimbot3aimEv
                0x0000000001809210      0x1f4 Main.o
                0x0000000001809210                _ZN6Aimbot3aimEv
 .text._ZZ18hook_onFrameInMenuvENKUlPvE_clES_.constprop.0.isra.0
                0x0000000001809404       0x14 Main.o
 .text._ZZ18hook_onFrameInMenuvENUlPvE_4_FUNES_
                0x0000000001809418       0x10 Main.o
 .text._ZN6Aimbot20shouldTargetEntitiesEv.isra.0
                0x0000000001809428       0x3c Main.o
 .text._ZN6Aimbot19shouldTargetPlayersEv.isra.0
                0x0000000001809464       0x3c Main.o
 .text._ZN6Aimbot22shouldTargetSpectatorsEv.isra.0
                0x00000000018094a0       0x3c Main.o
 .text._ZN4mstd6vectorIN8mc_boost10shared_ptrIN2mc6PlayerEEEE4sizeEv
                0x00000000018094dc       0x14 Main.o
                0x00000000018094dc                _ZN4mstd6vectorIN8mc_boost10shared_ptrIN2mc6PlayerEEEE4sizeEv
 .text._ZN4mstd6vectorIN8mc_boost10shared_ptrIN2mc6PlayerEEEE3endEv
                0x00000000018094f0       0x28 Main.o
                0x00000000018094f0                _ZN4mstd6vectorIN8mc_boost10shared_ptrIN2mc6PlayerEEEE3endEv
 .text._ZN8KillAura4drawEv
                0x0000000001809518      0x484 Main.o
                0x0000000001809518                _ZN8KillAura4drawEv
 .text._Z18hook_onFrameInGamev
                0x000000000180999c       0x34 Main.o
                0x000000000180999c                _Z18hook_onFrameInGamev
 .text._ZN3ESP4drawEPvRKN8mc_boost10shared_ptrIN2mc6EntityEEEjfffff.isra.0
                0x00000000018099d0      0x2a0 Main.o
 .text._Z87my_renderHitbox__22EntityRenderDispatcherFRQ2_5boost25shared_ptr__tm__8_6EntitydN22fT5iPvRKN8mc_boost10shared_ptrIN2mc6EntityEEEjfffff
                0x0000000001809c70        0x8 Main.o
                0x0000000001809c70                _Z87my_renderHitbox__22EntityRenderDispatcherFRQ2_5boost25shared_ptr__tm__8_6EntitydN22fT5iPvRKN8mc_boost10shared_ptrIN2mc6EntityEEEjfffff
 .text._ZN4mstd6vectorIN8mc_boost10shared_ptrIN2mc6EntityEEEE4sizeEv
                0x0000000001809c78       0x14 Main.o
                0x0000000001809c78                _ZN4mstd6vectorIN8mc_boost10shared_ptrIN2mc6EntityEEEE4sizeEv
 .text._ZN4mstd6vectorIN8mc_boost10shared_ptrIN2mc6EntityEEEE3endEv
                0x0000000001809c8c       0x28 Main.o
                0x0000000001809c8c                _ZN4mstd6vectorIN8mc_boost10shared_ptrIN2mc6EntityEEEE3endEv
 .text._ZN8KillAura12selectEntityEv
                0x0000000001809cb4      0x324 Main.o
                0x0000000001809cb4                _ZN8KillAura12selectEntityEv
 .text._ZN8KillAura6onTickEb
                0x0000000001809fd8      0x138 Main.o
                0x0000000001809fd8                _ZN8KillAura6onTickEb
 .text._ZN6Aimbot12selectEntityEv
                0x000000000180a110      0x314 Main.o
                0x000000000180a110                _ZN6Aimbot12selectEntityEv
 .text._Z24my_tick__11LocalPlayerFvPN2mc11LocalPlayerE
                0x000000000180a424       0x54 Main.o
                0x000000000180a424                _Z24my_tick__11LocalPlayerFvPN2mc11LocalPlayerE
 .text._ZN2xf6StringIwE11toLowerCaseEv
                0x000000000180a478       0xdc Main.o
                0x000000000180a478                _ZN2xf6StringIwE11toLowerCaseEv
 .text._ZN2xf6VectorIN10CustomChat9ChatEntryEE5clearEv
                0x000000000180a554       0x3c Main.o
                0x000000000180a554                _ZN2xf6VectorIN10CustomChat9ChatEntryEE5clearEv
 .text._ZNK2xf6VectorIN10CustomChat9ChatEntryEE3endEv
                0x000000000180a590       0x14 Main.o
                0x000000000180a590                _ZNK2xf6VectorIN10CustomChat9ChatEntryEE3endEv
 .text._ZN2xf6VectorIN10CustomChat9ChatEntryEE9push_backES2_
                0x000000000180a5a4       0xdc Main.o
                0x000000000180a5a4                _ZN2xf6VectorIN10CustomChat9ChatEntryEE9push_backES2_
 .text._ZN2xf6VectorIN10CustomChat9ChatEntryEEaSERKS3_.isra.0
                0x000000000180a680       0x78 Main.o
 .text._ZN10CustomChatC2Ev
                0x000000000180a6f8       0x7c Main.o
                0x000000000180a6f8                _ZN10CustomChatC1Ev
                0x000000000180a6f8                _ZN10CustomChatC2Ev
 .text._ZN2xf6VectorIN4mstd4pairIjfEEE5clearEv
                0x000000000180a774       0x3c Main.o
                0x000000000180a774                _ZN2xf6VectorIN4mstd4pairIjfEEE5clearEv
 .text._ZNK2xf6VectorIN4mstd4pairIjfEEE3endEv
                0x000000000180a7b0       0x14 Main.o
                0x000000000180a7b0                _ZNK2xf6VectorIN4mstd4pairIjfEEE3endEv
 .text._ZN2xf6VectorIN4mstd4pairIjfEEEaSERKS4_.isra.0
                0x000000000180a7c4       0x68 Main.o
 .text._ZN10KeyStrokesC2Ev
                0x000000000180a82c       0x7c Main.o
                0x000000000180a82c                _ZN10KeyStrokesC1Ev
                0x000000000180a82c                _ZN10KeyStrokesC2Ev
 .text._Z6c_mainPv
                0x000000000180a8a8      0x5e8 Main.o
                0x000000000180a8a8                _Z6c_mainPv
 .text._ZNK2xf6StringIwEixEi
                0x000000000180ae90       0x20 Main.o
                0x000000000180ae90                _ZNK2xf6StringIwEixEi
 .text._ZN2xf6StringIwEaSES1_
                0x000000000180aeb0       0x44 Main.o
                0x000000000180aeb0                _ZN2xf6StringIwEaSES1_
 .text._ZN2xf6StringIwE11hexStrToIntES1_
                0x000000000180aef4       0xd4 Main.o
                0x000000000180aef4                _ZN2xf6StringIwE11hexStrToIntES1_
 .text._ZZZN3ESPC4EvENKUlP6ModuleE_clES1_ENKUlPvbE_clES3_b.isra.0
                0x000000000180afc8       0x60 Main.o
 .text._ZZZN3ESPC4EvENKUlP6ModuleE_clES1_ENUlPvbE_4_FUNES3_b
                0x000000000180b028        0x4 Main.o
                0x000000000180b028                _ZZZN3ESPC4EvENKUlP6ModuleE_clES1_ENUlPvbE_4_FUNES3_b
 .text._ZZZN8ChestESPC4EvENKUlP6ModuleE_clES1_ENKUlPvbE_clES3_b.isra.0
                0x000000000180b02c       0x60 Main.o
 .text._ZZZN8ChestESPC4EvENKUlP6ModuleE_clES1_ENUlPvbE_4_FUNES3_b
                0x000000000180b08c        0x4 Main.o
                0x000000000180b08c                _ZZZN8ChestESPC4EvENKUlP6ModuleE_clES1_ENUlPvbE_4_FUNES3_b
 .text._ZdlPvj  0x000000000180b090        0x4 c:/devkitpro/devkitppc/bin/../lib/gcc/powerpc-eabi/12.1.0/../../../../powerpc-eabi/lib\libstdc++.a(del_ops.o)
                0x000000000180b090                _ZdlPvj
 .text.unlikely.__cxa_throw_bad_array_new_length
                0x000000000180b094       0x34 c:/devkitpro/devkitppc/bin/../lib/gcc/powerpc-eabi/12.1.0/../../../../powerpc-eabi/lib\libstdc++.a(eh_aux_runtime.o)
                0x000000000180b094                __cxa_throw_bad_array_new_length
 .text._ZL16get_adjusted_ptrPKSt9type_infoS1_PPv
                0x000000000180b0c8       0xa0 c:/devkitpro/devkitppc/bin/../lib/gcc/powerpc-eabi/12.1.0/../../../../powerpc-eabi/lib\libstdc++.a(eh_personality.o)
 .text._ZL28read_encoded_value_with_basehjPKhPj
                0x000000000180b168      0x13c c:/devkitpro/devkitppc/bin/../lib/gcc/powerpc-eabi/12.1.0/../../../../powerpc-eabi/lib\libstdc++.a(eh_personality.o)
 .text._ZL21base_of_encoded_valuehP15_Unwind_Context
                0x000000000180b2a4       0x68 c:/devkitpro/devkitppc/bin/../lib/gcc/powerpc-eabi/12.1.0/../../../../powerpc-eabi/lib\libstdc++.a(eh_personality.o)
 .text._ZL17parse_lsda_headerP15_Unwind_ContextPKhP16lsda_header_info
                0x000000000180b30c      0x11c c:/devkitpro/devkitppc/bin/../lib/gcc/powerpc-eabi/12.1.0/../../../../powerpc-eabi/lib\libstdc++.a(eh_personality.o)
 .text._ZL20check_exception_specP16lsda_header_infoPKSt9type_infoPvl
                0x000000000180b428      0x138 c:/devkitpro/devkitppc/bin/../lib/gcc/powerpc-eabi/12.1.0/../../../../powerpc-eabi/lib\libstdc++.a(eh_personality.o)
 .text.__gxx_personality_v0
                0x000000000180b560      0x7a4 c:/devkitpro/devkitppc/bin/../lib/gcc/powerpc-eabi/12.1.0/../../../../powerpc-eabi/lib\libstdc++.a(eh_personality.o)
                0x000000000180b560                __gxx_personality_v0
 .text._ZN10__cxxabiv111__terminateEPFvvE
                0x000000000180bd04       0x20 c:/devkitpro/devkitppc/bin/../lib/gcc/powerpc-eabi/12.1.0/../../../../powerpc-eabi/lib\libstdc++.a(eh_terminate.o)
                0x000000000180bd04                _ZN10__cxxabiv111__terminateEPFvvE
 .text._ZSt9terminatev
                0x000000000180bd24       0x24 c:/devkitpro/devkitppc/bin/../lib/gcc/powerpc-eabi/12.1.0/../../../../powerpc-eabi/lib\libstdc++.a(eh_terminate.o)
                0x000000000180bd24                _ZSt9terminatev
 .text._ZN10__cxxabiv112__unexpectedEPFvvE
                0x000000000180bd48       0x18 c:/devkitpro/devkitppc/bin/../lib/gcc/powerpc-eabi/12.1.0/../../../../powerpc-eabi/lib\libstdc++.a(eh_terminate.o)
                0x000000000180bd48                _ZN10__cxxabiv112__unexpectedEPFvvE
 .text._ZSt10unexpectedv
                0x000000000180bd60       0x24 c:/devkitpro/devkitppc/bin/../lib/gcc/powerpc-eabi/12.1.0/../../../../powerpc-eabi/lib\libstdc++.a(eh_terminate.o)
                0x000000000180bd60                _ZSt10unexpectedv
 .text._ZSt13get_terminatev
                0x000000000180bd84       0x18 c:/devkitpro/devkitppc/bin/../lib/gcc/powerpc-eabi/12.1.0/../../../../powerpc-eabi/lib\libstdc++.a(eh_terminate.o)
                0x000000000180bd84                _ZSt13get_terminatev
 .text._ZSt14get_unexpectedv
                0x000000000180bd9c       0x18 c:/devkitpro/devkitppc/bin/../lib/gcc/powerpc-eabi/12.1.0/../../../../powerpc-eabi/lib\libstdc++.a(eh_terminate.o)
                0x000000000180bd9c                _ZSt14get_unexpectedv
 .text._ZL23__gxx_exception_cleanup19_Unwind_Reason_CodeP17_Unwind_Exception
                0x000000000180bdb4       0x8c c:/devkitpro/devkitppc/bin/../lib/gcc/powerpc-eabi/12.1.0/../../../../powerpc-eabi/lib\libstdc++.a(eh_throw.o)
 .text.__cxa_init_primary_exception
                0x000000000180be40       0x70 c:/devkitpro/devkitppc/bin/../lib/gcc/powerpc-eabi/12.1.0/../../../../powerpc-eabi/lib\libstdc++.a(eh_throw.o)
                0x000000000180be40                __cxa_init_primary_exception
 .text.__cxa_throw
                0x000000000180beb0       0x68 c:/devkitpro/devkitppc/bin/../lib/gcc/powerpc-eabi/12.1.0/../../../../powerpc-eabi/lib\libstdc++.a(eh_throw.o)
                0x000000000180beb0                __cxa_throw
 .text._ZNK9__gnu_cxx24__concurrence_lock_error4whatEv
                0x000000000180bf18        0xc c:/devkitpro/devkitppc/bin/../lib/gcc/powerpc-eabi/12.1.0/../../../../powerpc-eabi/lib\libstdc++.a(guard.o)
                0x000000000180bf18                _ZNK9__gnu_cxx24__concurrence_lock_error4whatEv
 .text._ZNK9__gnu_cxx26__concurrence_unlock_error4whatEv
                0x000000000180bf24        0xc c:/devkitpro/devkitppc/bin/../lib/gcc/powerpc-eabi/12.1.0/../../../../powerpc-eabi/lib\libstdc++.a(guard.o)
                0x000000000180bf24                _ZNK9__gnu_cxx26__concurrence_unlock_error4whatEv
 .text._ZNK9__gnu_cxx29__concurrence_broadcast_error4whatEv
                0x000000000180bf30        0xc c:/devkitpro/devkitppc/bin/../lib/gcc/powerpc-eabi/12.1.0/../../../../powerpc-eabi/lib\libstdc++.a(guard.o)
                0x000000000180bf30                _ZNK9__gnu_cxx29__concurrence_broadcast_error4whatEv
 .text._ZNK9__gnu_cxx24__concurrence_wait_error4whatEv
                0x000000000180bf3c        0xc c:/devkitpro/devkitppc/bin/../lib/gcc/powerpc-eabi/12.1.0/../../../../powerpc-eabi/lib\libstdc++.a(guard.o)
                0x000000000180bf3c                _ZNK9__gnu_cxx24__concurrence_wait_error4whatEv
 .text._ZN9__gnu_cxx24__concurrence_lock_errorD2Ev
                0x000000000180bf48       0x10 c:/devkitpro/devkitppc/bin/../lib/gcc/powerpc-eabi/12.1.0/../../../../powerpc-eabi/lib\libstdc++.a(guard.o)
                0x000000000180bf48                _ZN9__gnu_cxx24__concurrence_lock_errorD1Ev
                0x000000000180bf48                _ZN9__gnu_cxx24__concurrence_lock_errorD2Ev
 .text._ZN9__gnu_cxx24__concurrence_wait_errorD2Ev
                0x000000000180bf58       0x10 c:/devkitpro/devkitppc/bin/../lib/gcc/powerpc-eabi/12.1.0/../../../../powerpc-eabi/lib\libstdc++.a(guard.o)
                0x000000000180bf58                _ZN9__gnu_cxx24__concurrence_wait_errorD2Ev
                0x000000000180bf58                _ZN9__gnu_cxx24__concurrence_wait_errorD1Ev
 .text._ZN9__gnu_cxx26__concurrence_unlock_errorD2Ev
                0x000000000180bf68       0x10 c:/devkitpro/devkitppc/bin/../lib/gcc/powerpc-eabi/12.1.0/../../../../powerpc-eabi/lib\libstdc++.a(guard.o)
                0x000000000180bf68                _ZN9__gnu_cxx26__concurrence_unlock_errorD2Ev
                0x000000000180bf68                _ZN9__gnu_cxx26__concurrence_unlock_errorD1Ev
 .text._ZN9__gnu_cxx29__concurrence_broadcast_errorD2Ev
                0x000000000180bf78       0x10 c:/devkitpro/devkitppc/bin/../lib/gcc/powerpc-eabi/12.1.0/../../../../powerpc-eabi/lib\libstdc++.a(guard.o)
                0x000000000180bf78                _ZN9__gnu_cxx29__concurrence_broadcast_errorD1Ev
                0x000000000180bf78                _ZN9__gnu_cxx29__concurrence_broadcast_errorD2Ev
 .text._ZN9__gnu_cxx24__concurrence_lock_errorD0Ev
                0x000000000180bf88       0x40 c:/devkitpro/devkitppc/bin/../lib/gcc/powerpc-eabi/12.1.0/../../../../powerpc-eabi/lib\libstdc++.a(guard.o)
                0x000000000180bf88                _ZN9__gnu_cxx24__concurrence_lock_errorD0Ev
 .text._ZN9__gnu_cxx24__concurrence_wait_errorD0Ev
                0x000000000180bfc8       0x40 c:/devkitpro/devkitppc/bin/../lib/gcc/powerpc-eabi/12.1.0/../../../../powerpc-eabi/lib\libstdc++.a(guard.o)
                0x000000000180bfc8                _ZN9__gnu_cxx24__concurrence_wait_errorD0Ev
 .text._ZN9__gnu_cxx26__concurrence_unlock_errorD0Ev
                0x000000000180c008       0x40 c:/devkitpro/devkitppc/bin/../lib/gcc/powerpc-eabi/12.1.0/../../../../powerpc-eabi/lib\libstdc++.a(guard.o)
                0x000000000180c008                _ZN9__gnu_cxx26__concurrence_unlock_errorD0Ev
 .text._ZN9__gnu_cxx29__concurrence_broadcast_errorD0Ev
                0x000000000180c048       0x40 c:/devkitpro/devkitppc/bin/../lib/gcc/powerpc-eabi/12.1.0/../../../../powerpc-eabi/lib\libstdc++.a(guard.o)
                0x000000000180c048                _ZN9__gnu_cxx29__concurrence_broadcast_errorD0Ev
 .text._ZN12_GLOBAL__N_1L16init_static_condEv
                0x000000000180c088       0x64 c:/devkitpro/devkitppc/bin/../lib/gcc/powerpc-eabi/12.1.0/../../../../powerpc-eabi/lib\libstdc++.a(guard.o)
 .text._ZN12_GLOBAL__N_1L4initEv
                0x000000000180c0ec       0x64 c:/devkitpro/devkitppc/bin/../lib/gcc/powerpc-eabi/12.1.0/../../../../powerpc-eabi/lib\libstdc++.a(guard.o)
 .text.unlikely._ZN9__gnu_cxx30__throw_concurrence_lock_errorEv
                0x000000000180c150       0x34 c:/devkitpro/devkitppc/bin/../lib/gcc/powerpc-eabi/12.1.0/../../../../powerpc-eabi/lib\libstdc++.a(guard.o)
                0x000000000180c150                _ZN9__gnu_cxx30__throw_concurrence_lock_errorEv
 .text.unlikely._ZN9__gnu_cxx32__throw_concurrence_unlock_errorEv
                0x000000000180c184       0x34 c:/devkitpro/devkitppc/bin/../lib/gcc/powerpc-eabi/12.1.0/../../../../powerpc-eabi/lib\libstdc++.a(guard.o)
                0x000000000180c184                _ZN9__gnu_cxx32__throw_concurrence_unlock_errorEv
 .text.unlikely._ZN9__gnu_cxx35__throw_concurrence_broadcast_errorEv
                0x000000000180c1b8       0x34 c:/devkitpro/devkitppc/bin/../lib/gcc/powerpc-eabi/12.1.0/../../../../powerpc-eabi/lib\libstdc++.a(guard.o)
                0x000000000180c1b8                _ZN9__gnu_cxx35__throw_concurrence_broadcast_errorEv
 .text.__cxa_guard_acquire
                0x000000000180c1ec      0x264 c:/devkitpro/devkitppc/bin/../lib/gcc/powerpc-eabi/12.1.0/../../../../powerpc-eabi/lib\libstdc++.a(guard.o)
                0x000000000180c1ec                __cxa_guard_acquire
 .text.__cxa_guard_release
                0x000000000180c450      0x118 c:/devkitpro/devkitppc/bin/../lib/gcc/powerpc-eabi/12.1.0/../../../../powerpc-eabi/lib\libstdc++.a(guard.o)
                0x000000000180c450                __cxa_guard_release
 .text._ZN9__gnu_cxx20recursive_init_errorD2Ev
                0x000000000180c568       0x10 c:/devkitpro/devkitppc/bin/../lib/gcc/powerpc-eabi/12.1.0/../../../../powerpc-eabi/lib\libstdc++.a(guard_error.o)
                0x000000000180c568                _ZN9__gnu_cxx20recursive_init_errorD2Ev
                0x000000000180c568                _ZN9__gnu_cxx20recursive_init_errorD1Ev
 .text._ZN9__gnu_cxx20recursive_init_errorD0Ev
                0x000000000180c578       0x40 c:/devkitpro/devkitppc/bin/../lib/gcc/powerpc-eabi/12.1.0/../../../../powerpc-eabi/lib\libstdc++.a(guard_error.o)
                0x000000000180c578                _ZN9__gnu_cxx20recursive_init_errorD0Ev
 .text._ZN9__gnu_cxx20recursive_init_errorC2Ev
                0x000000000180c5b8       0x10 c:/devkitpro/devkitppc/bin/../lib/gcc/powerpc-eabi/12.1.0/../../../../powerpc-eabi/lib\libstdc++.a(guard_error.o)
                0x000000000180c5b8                _ZN9__gnu_cxx20recursive_init_errorC1Ev
                0x000000000180c5b8                _ZN9__gnu_cxx20recursive_init_errorC2Ev
 .text._ZN10__cxxabiv120__si_class_type_infoD2Ev
                0x000000000180c5c8       0x10 c:/devkitpro/devkitppc/bin/../lib/gcc/powerpc-eabi/12.1.0/../../../../powerpc-eabi/lib\libstdc++.a(si_class_type_info.o)
                0x000000000180c5c8                _ZN10__cxxabiv120__si_class_type_infoD1Ev
                0x000000000180c5c8                _ZN10__cxxabiv120__si_class_type_infoD2Ev
 .text._ZN10__cxxabiv120__si_class_type_infoD0Ev
                0x000000000180c5d8       0x40 c:/devkitpro/devkitppc/bin/../lib/gcc/powerpc-eabi/12.1.0/../../../../powerpc-eabi/lib\libstdc++.a(si_class_type_info.o)
                0x000000000180c5d8                _ZN10__cxxabiv120__si_class_type_infoD0Ev
 .text._ZNK10__cxxabiv120__si_class_type_info12__do_dyncastEiNS_17__class_type_info10__sub_kindEPKS1_PKvS4_S6_RNS1_16__dyncast_resultE
                0x000000000180c618      0x1d4 c:/devkitpro/devkitppc/bin/../lib/gcc/powerpc-eabi/12.1.0/../../../../powerpc-eabi/lib\libstdc++.a(si_class_type_info.o)
                0x000000000180c618                _ZNK10__cxxabiv120__si_class_type_info12__do_dyncastEiNS_17__class_type_info10__sub_kindEPKS1_PKvS4_S6_RNS1_16__dyncast_resultE
 .text._ZNK10__cxxabiv120__si_class_type_info20__do_find_public_srcEiPKvPKNS_17__class_type_infoES2_
                0x000000000180c7ec       0xb4 c:/devkitpro/devkitppc/bin/../lib/gcc/powerpc-eabi/12.1.0/../../../../powerpc-eabi/lib\libstdc++.a(si_class_type_info.o)
                0x000000000180c7ec                _ZNK10__cxxabiv120__si_class_type_info20__do_find_public_srcEiPKvPKNS_17__class_type_infoES2_
 .text._ZNK10__cxxabiv120__si_class_type_info11__do_upcastEPKNS_17__class_type_infoEPKvRNS1_15__upcast_resultE
                0x000000000180c8a0       0x94 c:/devkitpro/devkitppc/bin/../lib/gcc/powerpc-eabi/12.1.0/../../../../powerpc-eabi/lib\libstdc++.a(si_class_type_info.o)
                0x000000000180c8a0                _ZNK10__cxxabiv120__si_class_type_info11__do_upcastEPKNS_17__class_type_infoEPKvRNS1_15__upcast_resultE
 .text._ZNSt9type_infoD2Ev
                0x000000000180c934        0x4 c:/devkitpro/devkitppc/bin/../lib/gcc/powerpc-eabi/12.1.0/../../../../powerpc-eabi/lib\libstdc++.a(tinfo.o)
                0x000000000180c934                _ZNSt9type_infoD2Ev
                0x000000000180c934                _ZNSt9type_infoD1Ev
 .text._ZNKSt9type_info14__is_pointer_pEv
                0x000000000180c938        0x8 c:/devkitpro/devkitppc/bin/../lib/gcc/powerpc-eabi/12.1.0/../../../../powerpc-eabi/lib\libstdc++.a(tinfo.o)
                0x000000000180c938                _ZNKSt9type_info14__is_pointer_pEv
                0x000000000180c938                _ZNKSt9type_info15__is_function_pEv
 .text._ZNKSt20bad_array_new_length4whatEv
                0x000000000180c940        0xc c:/devkitpro/devkitppc/bin/../lib/gcc/powerpc-eabi/12.1.0/../../../../powerpc-eabi/lib\libstdc++.a(bad_array_new.o)
                0x000000000180c940                _ZNKSt20bad_array_new_length4whatEv
 .text._ZNSt20bad_array_new_lengthD2Ev
                0x000000000180c94c       0x10 c:/devkitpro/devkitppc/bin/../lib/gcc/powerpc-eabi/12.1.0/../../../../powerpc-eabi/lib\libstdc++.a(bad_array_new.o)
                0x000000000180c94c                _ZNSt20bad_array_new_lengthD2Ev
                0x000000000180c94c                _ZNSt20bad_array_new_lengthD1Ev
 .text._ZNSt20bad_array_new_lengthD0Ev
                0x000000000180c95c       0x40 c:/devkitpro/devkitppc/bin/../lib/gcc/powerpc-eabi/12.1.0/../../../../powerpc-eabi/lib\libstdc++.a(bad_array_new.o)
                0x000000000180c95c                _ZNSt20bad_array_new_lengthD0Ev
 .text._ZNK10__cxxabiv117__class_type_info11__do_upcastEPKS0_PPv
                0x000000000180c99c       0x7c c:/devkitpro/devkitppc/bin/../lib/gcc/powerpc-eabi/12.1.0/../../../../powerpc-eabi/lib\libstdc++.a(class_type_info.o)
                0x000000000180c99c                _ZNK10__cxxabiv117__class_type_info11__do_upcastEPKS0_PPv
 .text._ZNK10__cxxabiv117__class_type_info20__do_find_public_srcEiPKvPKS0_S2_
                0x000000000180ca18       0x18 c:/devkitpro/devkitppc/bin/../lib/gcc/powerpc-eabi/12.1.0/../../../../powerpc-eabi/lib\libstdc++.a(class_type_info.o)
                0x000000000180ca18                _ZNK10__cxxabiv117__class_type_info20__do_find_public_srcEiPKvPKS0_S2_
 .text._ZN10__cxxabiv117__class_type_infoD2Ev
                0x000000000180ca30       0x10 c:/devkitpro/devkitppc/bin/../lib/gcc/powerpc-eabi/12.1.0/../../../../powerpc-eabi/lib\libstdc++.a(class_type_info.o)
                0x000000000180ca30                _ZN10__cxxabiv117__class_type_infoD2Ev
                0x000000000180ca30                _ZN10__cxxabiv117__class_type_infoD1Ev
 .text._ZN10__cxxabiv117__class_type_infoD0Ev
                0x000000000180ca40       0x40 c:/devkitpro/devkitppc/bin/../lib/gcc/powerpc-eabi/12.1.0/../../../../powerpc-eabi/lib\libstdc++.a(class_type_info.o)
                0x000000000180ca40                _ZN10__cxxabiv117__class_type_infoD0Ev
 .text._ZNK10__cxxabiv117__class_type_info11__do_upcastEPKS0_PKvRNS0_15__upcast_resultE
                0x000000000180ca80       0x94 c:/devkitpro/devkitppc/bin/../lib/gcc/powerpc-eabi/12.1.0/../../../../powerpc-eabi/lib\libstdc++.a(class_type_info.o)
                0x000000000180ca80                _ZNK10__cxxabiv117__class_type_info11__do_upcastEPKS0_PKvRNS0_15__upcast_resultE
 .text._ZNK10__cxxabiv117__class_type_info10__do_catchEPKSt9type_infoPPvj
                0x000000000180cb14      0x104 c:/devkitpro/devkitppc/bin/../lib/gcc/powerpc-eabi/12.1.0/../../../../powerpc-eabi/lib\libstdc++.a(class_type_info.o)
                0x000000000180cb14                _ZNK10__cxxabiv117__class_type_info10__do_catchEPKSt9type_infoPPvj
 .text._ZNK10__cxxabiv117__class_type_info12__do_dyncastEiNS0_10__sub_kindEPKS0_PKvS3_S5_RNS0_16__dyncast_resultE
                0x000000000180cc18      0x138 c:/devkitpro/devkitppc/bin/../lib/gcc/powerpc-eabi/12.1.0/../../../../powerpc-eabi/lib\libstdc++.a(class_type_info.o)
                0x000000000180cc18                _ZNK10__cxxabiv117__class_type_info12__do_dyncastEiNS0_10__sub_kindEPKS0_PKvS3_S5_RNS0_16__dyncast_resultE
 .text._ZN12_GLOBAL__N_14pool4freeEPv.constprop.0
                0x000000000180cd50      0x144 c:/devkitpro/devkitppc/bin/../lib/gcc/powerpc-eabi/12.1.0/../../../../powerpc-eabi/lib\libstdc++.a(eh_alloc.o)
 .text._ZN12_GLOBAL__N_14pool8allocateEj.constprop.0
                0x000000000180ce94       0xfc c:/devkitpro/devkitppc/bin/../lib/gcc/powerpc-eabi/12.1.0/../../../../powerpc-eabi/lib\libstdc++.a(eh_alloc.o)
 .text.__cxa_allocate_exception
                0x000000000180cf90       0x64 c:/devkitpro/devkitppc/bin/../lib/gcc/powerpc-eabi/12.1.0/../../../../powerpc-eabi/lib\libstdc++.a(eh_alloc.o)
                0x000000000180cf90                __cxa_allocate_exception
 .text.__cxa_free_exception
                0x000000000180cff4       0x4c c:/devkitpro/devkitppc/bin/../lib/gcc/powerpc-eabi/12.1.0/../../../../powerpc-eabi/lib\libstdc++.a(eh_alloc.o)
                0x000000000180cff4                __cxa_free_exception
 .text.__cxa_call_terminate
                0x000000000180d040       0x58 c:/devkitpro/devkitppc/bin/../lib/gcc/powerpc-eabi/12.1.0/../../../../powerpc-eabi/lib\libstdc++.a(eh_call.o)
                0x000000000180d040                __cxa_call_terminate
 .text.__cxa_begin_catch
                0x000000000180d098       0xc4 c:/devkitpro/devkitppc/bin/../lib/gcc/powerpc-eabi/12.1.0/../../../../powerpc-eabi/lib\libstdc++.a(eh_catch.o)
                0x000000000180d098                __cxa_begin_catch
 .text._ZNSt9exceptionD2Ev
                0x000000000180d15c        0x4 c:/devkitpro/devkitppc/bin/../lib/gcc/powerpc-eabi/12.1.0/../../../../powerpc-eabi/lib\libstdc++.a(eh_exception.o)
                0x000000000180d15c                _ZNSt9exceptionD1Ev
                0x000000000180d15c                _ZNSt9exceptionD2Ev
 .text._ZNKSt9exception4whatEv
                0x000000000180d160        0xc c:/devkitpro/devkitppc/bin/../lib/gcc/powerpc-eabi/12.1.0/../../../../powerpc-eabi/lib\libstdc++.a(eh_exception.o)
                0x000000000180d160                _ZNKSt9exception4whatEv
                0x000000000180d160                _ZGTtNKSt9exception4whatEv
 .text.__cxa_get_globals
                0x000000000180d16c       0xbc c:/devkitpro/devkitppc/bin/../lib/gcc/powerpc-eabi/12.1.0/../../../../powerpc-eabi/lib\libstdc++.a(eh_globals.o)
                0x000000000180d16c                __cxa_get_globals
 .text._ZNKSt9bad_alloc4whatEv
                0x000000000180d228        0xc c:/devkitpro/devkitppc/bin/../lib/gcc/powerpc-eabi/12.1.0/../../../../powerpc-eabi/lib\libstdc++.a(bad_alloc.o)
                0x000000000180d228                _ZNKSt9bad_alloc4whatEv
 .text._ZNSt9bad_allocD2Ev
                0x000000000180d234       0x10 c:/devkitpro/devkitppc/bin/../lib/gcc/powerpc-eabi/12.1.0/../../../../powerpc-eabi/lib\libstdc++.a(bad_alloc.o)
                0x000000000180d234                _ZNSt9bad_allocD1Ev
                0x000000000180d234                _ZNSt9bad_allocD2Ev
 .text._ZNSt9bad_allocD0Ev
                0x000000000180d244       0x40 c:/devkitpro/devkitppc/bin/../lib/gcc/powerpc-eabi/12.1.0/../../../../powerpc-eabi/lib\libstdc++.a(bad_alloc.o)
                0x000000000180d244                _ZNSt9bad_allocD0Ev
 .text.atan2    0x000000000180d284        0x4 c:/devkitpro/devkitppc/bin/../lib/gcc/powerpc-eabi/12.1.0/../../../../powerpc-eabi/lib\libm.a(lib_a-w_atan2.o)
                0x000000000180d284                atan2
 .text.sincosf  0x000000000180d288       0x58 c:/devkitpro/devkitppc/bin/../lib/gcc/powerpc-eabi/12.1.0/../../../../powerpc-eabi/lib\libm.a(lib_a-wf_sincos.o)
                0x000000000180d288                sincosf
 .text.sqrtf    0x000000000180d2e0       0x74 c:/devkitpro/devkitppc/bin/../lib/gcc/powerpc-eabi/12.1.0/../../../../powerpc-eabi/lib\libm.a(lib_a-wf_sqrt.o)
                0x000000000180d2e0                sqrtf
 .text.sqrt     0x000000000180d354       0x74 c:/devkitpro/devkitppc/bin/../lib/gcc/powerpc-eabi/12.1.0/../../../../powerpc-eabi/lib\libm.a(lib_a-w_sqrt.o)
                0x000000000180d354                sqrt
 .text.__ieee754_atan2
                0x000000000180d3c8      0x2b4 c:/devkitpro/devkitppc/bin/../lib/gcc/powerpc-eabi/12.1.0/../../../../powerpc-eabi/lib\libm.a(lib_a-e_atan2.o)
                0x000000000180d3c8                __ieee754_atan2
 .text.__ieee754_sqrtf
                0x000000000180d67c      0x16c c:/devkitpro/devkitppc/bin/../lib/gcc/powerpc-eabi/12.1.0/../../../../powerpc-eabi/lib\libm.a(lib_a-ef_sqrt.o)
                0x000000000180d67c                __ieee754_sqrtf
 .text.__ieee754_sqrt
                0x000000000180d7e8      0x2f4 c:/devkitpro/devkitppc/bin/../lib/gcc/powerpc-eabi/12.1.0/../../../../powerpc-eabi/lib\libm.a(lib_a-e_sqrt.o)
                0x000000000180d7e8                __ieee754_sqrt
 .text.atan     0x000000000180dadc      0x2ac c:/devkitpro/devkitppc/bin/../lib/gcc/powerpc-eabi/12.1.0/../../../../powerpc-eabi/lib\libm.a(lib_a-s_atan.o)
                0x000000000180dadc                atan
 .text.fabs     0x000000000180dd88       0x28 c:/devkitpro/devkitppc/bin/../lib/gcc/powerpc-eabi/12.1.0/../../../../powerpc-eabi/lib\libm.a(lib_a-s_fabs.o)
                0x000000000180dd88                fabs
 .text.cosf     0x000000000180ddb0       0xe0 c:/devkitpro/devkitppc/bin/../lib/gcc/powerpc-eabi/12.1.0/../../../../powerpc-eabi/lib\libm.a(lib_a-sf_cos.o)
                0x000000000180ddb0                cosf
 .text.sinf     0x000000000180de90       0xe4 c:/devkitpro/devkitppc/bin/../lib/gcc/powerpc-eabi/12.1.0/../../../../powerpc-eabi/lib\libm.a(lib_a-sf_sin.o)
                0x000000000180de90                sinf
 .text.__ieee754_rem_pio2f
                0x000000000180df74      0x418 c:/devkitpro/devkitppc/bin/../lib/gcc/powerpc-eabi/12.1.0/../../../../powerpc-eabi/lib\libm.a(lib_a-ef_rem_pio2.o)
                0x000000000180df74                __ieee754_rem_pio2f
 .text.__kernel_cosf
                0x000000000180e38c      0x188 c:/devkitpro/devkitppc/bin/../lib/gcc/powerpc-eabi/12.1.0/../../../../powerpc-eabi/lib\libm.a(lib_a-kf_cos.o)
                0x000000000180e38c                __kernel_cosf
 .text.__kernel_rem_pio2f
                0x000000000180e514      0xe9c c:/devkitpro/devkitppc/bin/../lib/gcc/powerpc-eabi/12.1.0/../../../../powerpc-eabi/lib\libm.a(lib_a-kf_rem_pio2.o)
                0x000000000180e514                __kernel_rem_pio2f
 .text.__kernel_sinf
                0x000000000180f3b0       0xcc c:/devkitpro/devkitppc/bin/../lib/gcc/powerpc-eabi/12.1.0/../../../../powerpc-eabi/lib\libm.a(lib_a-kf_sin.o)
                0x000000000180f3b0                __kernel_sinf
 .text.fabsf    0x000000000180f47c       0x20 c:/devkitpro/devkitppc/bin/../lib/gcc/powerpc-eabi/12.1.0/../../../../powerpc-eabi/lib\libm.a(lib_a-sf_fabs.o)
                0x000000000180f47c                fabsf
 .text.floorf   0x000000000180f49c      0x110 c:/devkitpro/devkitppc/bin/../lib/gcc/powerpc-eabi/12.1.0/../../../../powerpc-eabi/lib\libm.a(lib_a-sf_floor.o)
                0x000000000180f49c                floorf
 .text.scalbnf  0x000000000180f5ac      0x174 c:/devkitpro/devkitppc/bin/../lib/gcc/powerpc-eabi/12.1.0/../../../../powerpc-eabi/lib\libm.a(lib_a-sf_scalbn.o)
                0x000000000180f5ac                scalbnf
 .text.__gthread_active_p
                0x000000000180f720       0x1c c:/devkitpro/devkitppc/bin/../lib/gcc/powerpc-eabi/12.1.0\libgcc.a(gthr-dkp.o)
                0x000000000180f720                __gthread_active_p
 .text.__gthread_once
                0x000000000180f73c       0x1c c:/devkitpro/devkitppc/bin/../lib/gcc/powerpc-eabi/12.1.0\libgcc.a(gthr-dkp.o)
                0x000000000180f73c                __gthread_once
 .text.__gthread_getspecific
                0x000000000180f758       0x44 c:/devkitpro/devkitppc/bin/../lib/gcc/powerpc-eabi/12.1.0\libgcc.a(gthr-dkp.o)
                0x000000000180f758                __gthread_getspecific
 .text.__gthread_setspecific
                0x000000000180f79c       0x44 c:/devkitpro/devkitppc/bin/../lib/gcc/powerpc-eabi/12.1.0\libgcc.a(gthr-dkp.o)
                0x000000000180f79c                __gthread_setspecific
 .text.__gthread_mutex_init_function
                0x000000000180f7e0       0x14 c:/devkitpro/devkitppc/bin/../lib/gcc/powerpc-eabi/12.1.0\libgcc.a(gthr-dkp.o)
                0x000000000180f7e0                __gthread_mutex_init_function
 .text.__gthread_mutex_lock
                0x000000000180f7f4       0x1c c:/devkitpro/devkitppc/bin/../lib/gcc/powerpc-eabi/12.1.0\libgcc.a(gthr-dkp.o)
                0x000000000180f7f4                __gthread_mutex_lock
 .text.__gthread_mutex_unlock
                0x000000000180f810       0x1c c:/devkitpro/devkitppc/bin/../lib/gcc/powerpc-eabi/12.1.0\libgcc.a(gthr-dkp.o)
                0x000000000180f810                __gthread_mutex_unlock
 .text.__gthread_recursive_mutex_init_function
                0x000000000180f82c       0x1c c:/devkitpro/devkitppc/bin/../lib/gcc/powerpc-eabi/12.1.0\libgcc.a(gthr-dkp.o)
                0x000000000180f82c                __gthread_recursive_mutex_init_function
 .text.__gthread_recursive_mutex_lock
                0x000000000180f848       0x1c c:/devkitpro/devkitppc/bin/../lib/gcc/powerpc-eabi/12.1.0\libgcc.a(gthr-dkp.o)
                0x000000000180f848                __gthread_recursive_mutex_lock
 .text.__gthread_recursive_mutex_unlock
                0x000000000180f864       0x1c c:/devkitpro/devkitppc/bin/../lib/gcc/powerpc-eabi/12.1.0\libgcc.a(gthr-dkp.o)
                0x000000000180f864                __gthread_recursive_mutex_unlock
 .text.__gthread_cond_init_function
                0x000000000180f880       0x14 c:/devkitpro/devkitppc/bin/../lib/gcc/powerpc-eabi/12.1.0\libgcc.a(gthr-dkp.o)
                0x000000000180f880                __gthread_cond_init_function
 .text.__gthread_cond_broadcast
                0x000000000180f894       0x1c c:/devkitpro/devkitppc/bin/../lib/gcc/powerpc-eabi/12.1.0\libgcc.a(gthr-dkp.o)
                0x000000000180f894                __gthread_cond_broadcast
 .text.__gthread_cond_wait_recursive
                0x000000000180f8b0       0x1c c:/devkitpro/devkitppc/bin/../lib/gcc/powerpc-eabi/12.1.0\libgcc.a(gthr-dkp.o)
                0x000000000180f8b0                __gthread_cond_wait_recursive
 .text.init_dwarf_reg_size_table
                0x000000000180f8cc      0x1d0 c:/devkitpro/devkitppc/bin/../lib/gcc/powerpc-eabi/12.1.0\libgcc.a(unwind-dw2.o)
 .text.uw_install_context_1
                0x000000000180fa9c      0x1d0 c:/devkitpro/devkitppc/bin/../lib/gcc/powerpc-eabi/12.1.0\libgcc.a(unwind-dw2.o)
 .text.read_encoded_value
                0x000000000180fc6c      0x194 c:/devkitpro/devkitppc/bin/../lib/gcc/powerpc-eabi/12.1.0\libgcc.a(unwind-dw2.o)
 .text.execute_stack_op
                0x000000000180fe00      0x88c c:/devkitpro/devkitppc/bin/../lib/gcc/powerpc-eabi/12.1.0\libgcc.a(unwind-dw2.o)
 .text.uw_update_context_1
                0x000000000181068c      0x39c c:/devkitpro/devkitppc/bin/../lib/gcc/powerpc-eabi/12.1.0\libgcc.a(unwind-dw2.o)
 .text.execute_cfa_program
                0x0000000001810a28      0x934 c:/devkitpro/devkitppc/bin/../lib/gcc/powerpc-eabi/12.1.0\libgcc.a(unwind-dw2.o)
 .text.uw_frame_state_for
                0x000000000181135c      0x4e4 c:/devkitpro/devkitppc/bin/../lib/gcc/powerpc-eabi/12.1.0\libgcc.a(unwind-dw2.o)
 .text.uw_init_context_1
                0x0000000001811840      0x2cc c:/devkitpro/devkitppc/bin/../lib/gcc/powerpc-eabi/12.1.0\libgcc.a(unwind-dw2.o)
 .text._Unwind_RaiseException_Phase2
                0x0000000001811b0c      0x1c8 c:/devkitpro/devkitppc/bin/../lib/gcc/powerpc-eabi/12.1.0\libgcc.a(unwind-dw2.o)
 .text._Unwind_ForcedUnwind_Phase2
                0x0000000001811cd4      0x1d8 c:/devkitpro/devkitppc/bin/../lib/gcc/powerpc-eabi/12.1.0\libgcc.a(unwind-dw2.o)
 .text._Unwind_SetGR
                0x0000000001811eac       0x68 c:/devkitpro/devkitppc/bin/../lib/gcc/powerpc-eabi/12.1.0\libgcc.a(unwind-dw2.o)
                0x0000000001811eac                _Unwind_SetGR
 .text._Unwind_GetIPInfo
                0x0000000001811f14       0x14 c:/devkitpro/devkitppc/bin/../lib/gcc/powerpc-eabi/12.1.0\libgcc.a(unwind-dw2.o)
                0x0000000001811f14                _Unwind_GetIPInfo
 .text._Unwind_SetIP
                0x0000000001811f28        0x8 c:/devkitpro/devkitppc/bin/../lib/gcc/powerpc-eabi/12.1.0\libgcc.a(unwind-dw2.o)
                0x0000000001811f28                _Unwind_SetIP
 .text._Unwind_GetLanguageSpecificData
                0x0000000001811f30        0x8 c:/devkitpro/devkitppc/bin/../lib/gcc/powerpc-eabi/12.1.0\libgcc.a(unwind-dw2.o)
                0x0000000001811f30                _Unwind_GetLanguageSpecificData
 .text._Unwind_GetRegionStart
                0x0000000001811f38        0x8 c:/devkitpro/devkitppc/bin/../lib/gcc/powerpc-eabi/12.1.0\libgcc.a(unwind-dw2.o)
                0x0000000001811f38                _Unwind_GetRegionStart
 .text._Unwind_GetDataRelBase
                0x0000000001811f40        0x8 c:/devkitpro/devkitppc/bin/../lib/gcc/powerpc-eabi/12.1.0\libgcc.a(unwind-dw2.o)
                0x0000000001811f40                _Unwind_GetDataRelBase
 .text._Unwind_GetTextRelBase
                0x0000000001811f48        0x8 c:/devkitpro/devkitppc/bin/../lib/gcc/powerpc-eabi/12.1.0\libgcc.a(unwind-dw2.o)
                0x0000000001811f48                _Unwind_GetTextRelBase
 .text._Unwind_DebugHook
                0x0000000001811f50        0x4 c:/devkitpro/devkitppc/bin/../lib/gcc/powerpc-eabi/12.1.0\libgcc.a(unwind-dw2.o)
 .text._Unwind_RaiseException
                0x0000000001811f54      0x300 c:/devkitpro/devkitppc/bin/../lib/gcc/powerpc-eabi/12.1.0\libgcc.a(unwind-dw2.o)
                0x0000000001811f54                _Unwind_RaiseException
 .text._Unwind_Resume
                0x0000000001812254      0x1dc c:/devkitpro/devkitppc/bin/../lib/gcc/powerpc-eabi/12.1.0\libgcc.a(unwind-dw2.o)
                0x0000000001812254                _Unwind_Resume
 .text.fde_unencoded_compare
                0x0000000001812430       0x20 c:/devkitpro/devkitppc/bin/../lib/gcc/powerpc-eabi/12.1.0\libgcc.a(unwind-dw2-fde.o)
 .text.frame_downheap
                0x0000000001812450      0x13c c:/devkitpro/devkitppc/bin/../lib/gcc/powerpc-eabi/12.1.0\libgcc.a(unwind-dw2-fde.o)
 .text.frame_heapsort
                0x000000000181258c      0x118 c:/devkitpro/devkitppc/bin/../lib/gcc/powerpc-eabi/12.1.0\libgcc.a(unwind-dw2-fde.o)
 .text.init_object_mutex
                0x00000000018126a4        0xc c:/devkitpro/devkitppc/bin/../lib/gcc/powerpc-eabi/12.1.0\libgcc.a(unwind-dw2-fde.o)
 .text.read_encoded_value_with_base
                0x00000000018126b0      0x13c c:/devkitpro/devkitppc/bin/../lib/gcc/powerpc-eabi/12.1.0\libgcc.a(unwind-dw2-fde.o)
 .text.get_cie_encoding
                0x00000000018127ec      0x14c c:/devkitpro/devkitppc/bin/../lib/gcc/powerpc-eabi/12.1.0\libgcc.a(unwind-dw2-fde.o)
 .text.classify_object_over_fdes
                0x0000000001812938      0x250 c:/devkitpro/devkitppc/bin/../lib/gcc/powerpc-eabi/12.1.0\libgcc.a(unwind-dw2-fde.o)
 .text.fde_single_encoding_compare
                0x0000000001812b88       0xd0 c:/devkitpro/devkitppc/bin/../lib/gcc/powerpc-eabi/12.1.0\libgcc.a(unwind-dw2-fde.o)
 .text.fde_mixed_encoding_compare
                0x0000000001812c58      0x15c c:/devkitpro/devkitppc/bin/../lib/gcc/powerpc-eabi/12.1.0\libgcc.a(unwind-dw2-fde.o)
 .text.add_fdes
                0x0000000001812db4      0x2b8 c:/devkitpro/devkitppc/bin/../lib/gcc/powerpc-eabi/12.1.0\libgcc.a(unwind-dw2-fde.o)
 .text.linear_search_fdes
                0x000000000181306c      0x318 c:/devkitpro/devkitppc/bin/../lib/gcc/powerpc-eabi/12.1.0\libgcc.a(unwind-dw2-fde.o)
 .text.search_object
                0x0000000001813384      0x804 c:/devkitpro/devkitppc/bin/../lib/gcc/powerpc-eabi/12.1.0\libgcc.a(unwind-dw2-fde.o)
 .text._Unwind_Find_FDE
                0x0000000001813b88      0x260 c:/devkitpro/devkitppc/bin/../lib/gcc/powerpc-eabi/12.1.0\libgcc.a(unwind-dw2-fde.o)
                0x0000000001813b88                _Unwind_Find_FDE
 .text.unlikely.abort
                0x0000000001813de8       0x28 c:/devkitpro/devkitppc/bin/../lib/gcc/powerpc-eabi/12.1.0/../../../../powerpc-eabi/lib\libsysbase.a(abort.o)
                0x0000000001813de8                abort
 .text._exit    0x0000000001813e10       0x28 c:/devkitpro/devkitppc/bin/../lib/gcc/powerpc-eabi/12.1.0/../../../../powerpc-eabi/lib\libsysbase.a(_exit.o)
                0x0000000001813e10                _exit
 .text.__errno  0x0000000001813e38        0xc c:/devkitpro/devkitppc/bin/../lib/gcc/powerpc-eabi/12.1.0/../../../../powerpc-eabi/lib\libc.a(lib_a-errno.o)
                0x0000000001813e38                __errno
 .text.malloc   0x0000000001813e44       0x10 c:/devkitpro/devkitppc/bin/../lib/gcc/powerpc-eabi/12.1.0/../../../../powerpc-eabi/lib\libc.a(lib_a-malloc.o)
                0x0000000001813e44                malloc
 .text.free     0x0000000001813e54       0x10 c:/devkitpro/devkitppc/bin/../lib/gcc/powerpc-eabi/12.1.0/../../../../powerpc-eabi/lib\libc.a(lib_a-malloc.o)
                0x0000000001813e54                free
 .text._malloc_r
                0x0000000001813e64      0x860 c:/devkitpro/devkitppc/bin/../lib/gcc/powerpc-eabi/12.1.0/../../../../powerpc-eabi/lib\libc.a(lib_a-mallocr.o)
                0x0000000001813e64                _malloc_r
 .text.memcpy   0x00000000018146c4      0x128 c:/devkitpro/devkitppc/bin/../lib/gcc/powerpc-eabi/12.1.0/../../../../powerpc-eabi/lib\libc.a(lib_a-memcpy.o)
                0x00000000018146c4                memcpy
 .text.memset   0x00000000018147ec      0x194 c:/devkitpro/devkitppc/bin/../lib/gcc/powerpc-eabi/12.1.0/../../../../powerpc-eabi/lib\libc.a(lib_a-memset.o)
                0x00000000018147ec                memset
 .text.strcmp   0x0000000001814980       0x9c c:/devkitpro/devkitppc/bin/../lib/gcc/powerpc-eabi/12.1.0/../../../../powerpc-eabi/lib\libc.a(lib_a-strcmp.o)
                0x0000000001814980                strcmp
 .text.strlen   0x0000000001814a1c       0x80 c:/devkitpro/devkitppc/bin/../lib/gcc/powerpc-eabi/12.1.0/../../../../powerpc-eabi/lib\libc.a(lib_a-strlen.o)
                0x0000000001814a1c                strlen
 .text.write    0x0000000001814a9c       0x20 c:/devkitpro/devkitppc/bin/../lib/gcc/powerpc-eabi/12.1.0/../../../../powerpc-eabi/lib\libc.a(lib_a-syswrite.o)
                0x0000000001814a9c                write
 .text._malloc_trim_r
                0x0000000001814abc      0x138 c:/devkitpro/devkitppc/bin/../lib/gcc/powerpc-eabi/12.1.0/../../../../powerpc-eabi/lib\libc.a(lib_a-freer.o)
                0x0000000001814abc                _malloc_trim_r
 .text._free_r  0x0000000001814bf4      0x330 c:/devkitpro/devkitppc/bin/../lib/gcc/powerpc-eabi/12.1.0/../../../../powerpc-eabi/lib\libc.a(lib_a-freer.o)
                0x0000000001814bf4                _free_r
 .text._sbrk_r  0x0000000001814f24       0x28 c:/devkitpro/devkitppc/bin/../lib/gcc/powerpc-eabi/12.1.0/../../../../powerpc-eabi/lib\libsysbase.a(sbrk.o)
                0x0000000001814f24                _sbrk_r
 .text._write_r
                0x0000000001814f4c       0xc4 c:/devkitpro/devkitppc/bin/../lib/gcc/powerpc-eabi/12.1.0/../../../../powerpc-eabi/lib\libsysbase.a(write.o)
                0x0000000001814f4c                _write_r
 .text.__get_handle
                0x0000000001815010       0x24 c:/devkitpro/devkitppc/bin/../lib/gcc/powerpc-eabi/12.1.0/../../../../powerpc-eabi/lib\libsysbase.a(handle_manager.o)
                0x0000000001815010                __get_handle
 .text.__malloc_lock
                0x0000000001815034       0x14 c:/devkitpro/devkitppc/bin/../lib/gcc/powerpc-eabi/12.1.0/../../../../powerpc-eabi/lib\libsysbase.a(syscall_support.o)
                0x0000000001815034                __malloc_lock
 .text.__malloc_unlock
                0x0000000001815048       0x14 c:/devkitpro/devkitppc/bin/../lib/gcc/powerpc-eabi/12.1.0/../../../../powerpc-eabi/lib\libsysbase.a(syscall_support.o)
                0x0000000001815048                __malloc_unlock
 .text.null_write
                0x000000000181505c        0x8 c:/devkitpro/devkitppc/bin/../lib/gcc/powerpc-eabi/12.1.0/../../../../powerpc-eabi/lib\libsysbase.a(iosupport.o)
 *(.gcc_except_table.*)
 .gcc_except_table._ZdlPv
                0x0000000001815064        0x4 Main.o
 .gcc_except_table._ZN2xf18ItemInstanceHelper10addEnchantEPN2mc12ItemInstanceEii
                0x0000000001815068       0x27 Main.o
 .gcc_except_table._ZN2xf18ItemInstanceHelper9addAttribEPN2mc12ItemInstanceEidiRKN4mstd7wstringE
                0x000000000181508f       0x28 Main.o
 .gcc_except_table._Z5_mainv
                0x00000000018150b7       0x13 Main.o
 .gcc_except_table._ZN9CustomSky4drawEv
                0x00000000018150ca       0x13 Main.o
 .gcc_except_table._ZZN8Scaffold6onTickEvENKUliiiE1_clEiii
                0x00000000018150dd       0x12 Main.o
 .gcc_except_table._ZZ6c_mainPvENKUlP6ModuleE0_clES1_.constprop.0
                0x00000000018150ef       0x14 Main.o
 .gcc_except_table._ZZ6c_mainPvENKUlP6ModuleE3_clES1_.constprop.0
                0x0000000001815103       0x1d Main.o
 .gcc_except_table._ZN6ClientC2EPKw
                0x0000000001815120       0x11 Main.o
 .gcc_except_table._ZN3ESPC2Ev
                0x0000000001815131       0x3b Main.o
 .gcc_except_table._ZN8ChestESPC2Ev
                0x000000000181516c       0x1b Main.o
 .gcc_except_table._ZN9CustomSkyC2Ev
                0x0000000001815187       0x10 Main.o
 .gcc_except_table._ZN6FlightC2Ev
                0x0000000001815197       0x10 Main.o
 .gcc_except_table._ZN6AimbotC2Ev
                0x00000000018151a7       0x3b Main.o
 .gcc_except_table._ZN8AntiKickC2Ev
                0x00000000018151e2       0x10 Main.o
 .gcc_except_table._ZN8KillAuraC2Ev
                0x00000000018151f2       0x25 Main.o
 .gcc_except_table._ZN5JesusC2Ev
                0x0000000001815217       0x10 Main.o
 .gcc_except_table._ZN8ScaffoldC2Ev
                0x0000000001815227       0x10 Main.o
 .gcc_except_table._ZN15HealthIndicatorC2Ev
                0x0000000001815237       0x24 Main.o
 .gcc_except_table._ZN22FriendsOfFriendsBypassC2Ev
                0x000000000181525b       0x10 Main.o
 .gcc_except_table._ZN4XRayC2EPv
                0x000000000181526b       0x10 Main.o
 .gcc_except_table._ZN11SeeNameTagsC2Ev
                0x000000000181527b       0x10 Main.o
 .gcc_except_table._Z18hook_onFrameInMenuv
                0x000000000181528b       0x11 Main.o
 .gcc_except_table._ZN8KillAura6onTickEb
                0x000000000181529c       0x13 Main.o
 .gcc_except_table._ZN10CustomChatC2Ev
                0x00000000018152af       0x10 Main.o
 .gcc_except_table._ZN10KeyStrokesC2Ev
                0x00000000018152bf       0x10 Main.o
 .gcc_except_table._Z6c_mainPv
                0x00000000018152cf      0x121 Main.o
 .gcc_except_table.__gxx_personality_v0
                0x00000000018153f0       0x1c c:/devkitpro/devkitppc/bin/../lib/gcc/powerpc-eabi/12.1.0/../../../../powerpc-eabi/lib\libstdc++.a(eh_personality.o)
 .gcc_except_table._ZN10__cxxabiv111__terminateEPFvvE
                0x000000000181540c       0x10 c:/devkitpro/devkitppc/bin/../lib/gcc/powerpc-eabi/12.1.0/../../../../powerpc-eabi/lib\libstdc++.a(eh_terminate.o)
 .gcc_except_table.__cxa_guard_acquire
                0x000000000181541c       0x1e c:/devkitpro/devkitppc/bin/../lib/gcc/powerpc-eabi/12.1.0/../../../../powerpc-eabi/lib\libstdc++.a(guard.o)
 .gcc_except_table.__cxa_guard_release
                0x000000000181543a        0x4 c:/devkitpro/devkitppc/bin/../lib/gcc/powerpc-eabi/12.1.0/../../../../powerpc-eabi/lib\libstdc++.a(guard.o)
 .gcc_except_table._ZN12_GLOBAL__N_14pool4freeEPv.constprop.0
                0x000000000181543e        0xd c:/devkitpro/devkitppc/bin/../lib/gcc/powerpc-eabi/12.1.0/../../../../powerpc-eabi/lib\libstdc++.a(eh_alloc.o)
 .gcc_except_table._ZN12_GLOBAL__N_14pool8allocateEj.constprop.0
                0x000000000181544b        0xd c:/devkitpro/devkitppc/bin/../lib/gcc/powerpc-eabi/12.1.0/../../../../powerpc-eabi/lib\libstdc++.a(eh_alloc.o)
 .gcc_except_table.__cxa_allocate_exception
                0x0000000001815458        0x4 c:/devkitpro/devkitppc/bin/../lib/gcc/powerpc-eabi/12.1.0/../../../../powerpc-eabi/lib\libstdc++.a(eh_alloc.o)
 .gcc_except_table.__cxa_free_exception
                0x000000000181545c        0x4 c:/devkitpro/devkitppc/bin/../lib/gcc/powerpc-eabi/12.1.0/../../../../powerpc-eabi/lib\libstdc++.a(eh_alloc.o)
 .gcc_except_table.__cxa_get_globals
                0x0000000001815460        0x4 c:/devkitpro/devkitppc/bin/../lib/gcc/powerpc-eabi/12.1.0/../../../../powerpc-eabi/lib\libstdc++.a(eh_globals.o)
 *(.sdata)
 .sdata         0x0000000001815464        0x0 Main.o
                0x000000000181d464                _SDA_BASE_
 .sdata         0x0000000001815464        0x8 c:/devkitpro/devkitppc/bin/../lib/gcc/powerpc-eabi/12.1.0/../../../../powerpc-eabi/lib\libc.a(lib_a-impure.o)
                0x0000000001815464                _global_impure_ptr
                0x0000000001815468                _impure_ptr
 *(.sdata.*)
 .sdata._ZN10__cxxabiv120__unexpected_handlerE
                0x000000000181546c        0x4 c:/devkitpro/devkitppc/bin/../lib/gcc/powerpc-eabi/12.1.0/../../../../powerpc-eabi/lib\libstdc++.a(eh_unex_handler.o)
                0x000000000181546c                _ZN10__cxxabiv120__unexpected_handlerE
 .sdata._ZTISt9type_info
                0x0000000001815470        0x8 c:/devkitpro/devkitppc/bin/../lib/gcc/powerpc-eabi/12.1.0/../../../../powerpc-eabi/lib\libstdc++.a(tinfo.o)
                0x0000000001815470                _ZTISt9type_info
 .sdata._ZTISt9exception
                0x0000000001815478        0x8 c:/devkitpro/devkitppc/bin/../lib/gcc/powerpc-eabi/12.1.0/../../../../powerpc-eabi/lib\libstdc++.a(eh_exception.o)
                0x0000000001815478                _ZTISt9exception
 .sdata._ZTIN10__cxxabiv115__forced_unwindE
                0x0000000001815480        0x8 c:/devkitpro/devkitppc/bin/../lib/gcc/powerpc-eabi/12.1.0/../../../../powerpc-eabi/lib\libstdc++.a(eh_exception.o)
                0x0000000001815480                _ZTIN10__cxxabiv115__forced_unwindE
 .sdata._ZTIN10__cxxabiv119__foreign_exceptionE
                0x0000000001815488        0x8 c:/devkitpro/devkitppc/bin/../lib/gcc/powerpc-eabi/12.1.0/../../../../powerpc-eabi/lib\libstdc++.a(eh_exception.o)
                0x0000000001815488                _ZTIN10__cxxabiv119__foreign_exceptionE
 .sdata._ZN10__cxxabiv119__terminate_handlerE
                0x0000000001815490        0x4 c:/devkitpro/devkitppc/bin/../lib/gcc/powerpc-eabi/12.1.0/../../../../powerpc-eabi/lib\libstdc++.a(eh_term_handler.o)
                0x0000000001815490                _ZN10__cxxabiv119__terminate_handlerE
 .sdata.__malloc_sbrk_base
                0x0000000001815494        0x4 c:/devkitpro/devkitppc/bin/../lib/gcc/powerpc-eabi/12.1.0/../../../../powerpc-eabi/lib\libc.a(lib_a-mallocr.o)
                0x0000000001815494                __malloc_sbrk_base
 .sdata.__malloc_trim_threshold
                0x0000000001815498        0x4 c:/devkitpro/devkitppc/bin/../lib/gcc/powerpc-eabi/12.1.0/../../../../powerpc-eabi/lib\libc.a(lib_a-mallocr.o)
                0x0000000001815498                __malloc_trim_threshold
 *(.rodata)
 .rodata        0x000000000181549c       0xd0 Main.o
 *(.rodata.*)
 .rodata._Z11mc_swprintfIJPKcijEEvPKwjS3_DpT_.constprop.0.str1.1
                0x000000000181556c        0x3 Main.o
 *fill*         0x000000000181556f        0x1 
 .rodata._Z11mc_swprintfIJPKcijEEvPKwjS3_DpT_.constprop.0.str2.2
                0x0000000001815570        0xc Main.o
 .rodata._Z11mc_swprintfIJPKwS1_EEvS1_jS1_DpT_.constprop.0.str2.2
                0x000000000181557c       0x18 Main.o
 .rodata._Z11mc_swprintfIJPcS0_EEvPKwjS2_DpT_.constprop.0.str2.2
                0x0000000001815594       0x10 Main.o
 .rodata._Z11mc_swprintfIJPKwEEvS1_jS1_DpT_.constprop.0.str2.2
                0x00000000018155a4       0x10 Main.o
 .rodata._Z11mc_swprintfIJjPKciEEvPKwjS3_DpT_.constprop.0.str1.1
                0x00000000018155b4        0x2 Main.o
 .rodata._Z27InitLibCurlFunctionPointersv.str1.1
                0x00000000018155b6       0x63 Main.o
 .rodata._Z26InitSocketFunctionPointersv.str1.1
                0x0000000001815619       0xdd Main.o
 .rodata._Z24InitVPadFunctionPointersv.str1.1
                0x00000000018156f6       0x1b Main.o
 .rodata._Z23InitGX2FunctionPointersv.str1.1
                0x0000000001815711       0x18 Main.o
 .rodata._Z26InitKernelFunctionPointersv.str1.1
                0x0000000001815729       0x38 Main.o
 .rodata._Z22InitOSFunctionPointersv.str1.1
                0x0000000001815761      0x100 Main.o
 .rodata._Z26InitMemoryFunctionPointersv.str1.1
                0x0000000001815861       0xf1 Main.o
 .rodata._ZZ6c_mainPvENKUlP6ModuleE2_clES1_.constprop.0.str2.2
                0x0000000001815952       0x10 Main.o
                                          0x2 (size before relaxing)
 .rodata._ZN6SliderIiE17onDefaultDrawFuncEPS0_.str2.2
                0x0000000001815952       0x20 Main.o
 .rodata._ZZN15HealthIndicator12HealthSliderC4EvENKUlP6SliderIiEE_clES3_.isra.0.str2.2
                0x0000000001815972       0x26 Main.o
 .rodata._Z13getEffectNamei.str2.2
                0x0000000001815998        0xa Main.o
 .rodata._ZN2xf18ItemInstanceHelper10addEnchantEPN2mc12ItemInstanceEii.str2.2
                0x00000000018159a2       0x18 Main.o
 .rodata._ZN2xf18ItemInstanceHelper9addAttribEPN2mc12ItemInstanceEidiRKN4mstd7wstringE.str2.2
                0x00000000018159ba       0x52 Main.o
                                         0x58 (size before relaxing)
 .rodata._Z5_mainv.str1.1
                0x0000000001815a0c       0x18 Main.o
 .rodata._ZN9CustomSky4drawEv.str2.2
                0x0000000001815a24       0x2c Main.o
 .rodata._Z11wcharToCharPKwi.str1.1
                0x0000000001815a50       0x18 Main.o
                                          0x1 (size before relaxing)
 .rodata._Z6toCStrfi.str2.2
                0x0000000001815a50       0x26 Main.o
                                         0x3a (size before relaxing)
 .rodata._ZN8AntiKick6onKickEN2mc16DisconnectPacket17eDisconnectReasonE.str2.2
                0x0000000001815a76       0x4c Main.o
 .rodata._ZN6SliderIiE14onDefaultEventEPS0_.str2.2
                0x0000000001815ac2       0x10 Main.o
 .rodata._ZZ6c_mainPvENKUlP6ModuleE_clES1_.constprop.0.str2.2
                0x0000000001815ad2      0x184 Main.o
 .rodata._ZN2xf6StringIwE8intToStrEi.str2.2
                0x0000000001815c56      0x184 Main.o
                                          0x6 (size before relaxing)
 .rodata._ZN10KeyStrokes7drawKeyEiijfi.str2.2
                0x0000000001815c56       0x10 Main.o
 .rodata._ZZ6c_mainPvENKUlP6ModuleE3_clES1_.constprop.0.str2.2
                0x0000000001815c66        0xa Main.o
 .rodata._ZZZ6c_mainPvENKUlP6ModuleE2_clES1_ENKUlS_bE_clES_b.constprop.0.str2.2
                0x0000000001815c70       0x22 Main.o
                                         0x2a (size before relaxing)
 .rodata._ZN6ClientC2EPKw.str2.2
                0x0000000001815c92        0xe Main.o
 .rodata._ZN3ESPC2Ev.str2.2
                0x0000000001815ca0       0x7a Main.o
                                         0x82 (size before relaxing)
 .rodata._ZN8ChestESPC2Ev.str2.2
                0x0000000001815d1a       0x12 Main.o
 .rodata._ZN9CustomSkyC2Ev.str2.2
                0x0000000001815d2c       0x16 Main.o
 .rodata._ZN6FlightC2Ev.str2.2
                0x0000000001815d42        0xe Main.o
 .rodata._ZN6AimbotC2Ev.str2.2
                0x0000000001815d50       0x3e Main.o
 .rodata._ZN8AntiKickC2Ev.str2.2
                0x0000000001815d8e       0x14 Main.o
 .rodata._ZN8KillAuraC2Ev.str2.2
                0x0000000001815da2       0x14 Main.o
 .rodata._ZN5JesusC2Ev.str2.2
                0x0000000001815db6        0xc Main.o
 .rodata._ZN8ScaffoldC2Ev.str2.2
                0x0000000001815dc2       0x12 Main.o
 .rodata._ZN15HealthIndicatorC2Ev.str2.2
                0x0000000001815dd4       0x46 Main.o
 .rodata._ZN22FriendsOfFriendsBypassC2Ev.str2.2
                0x0000000001815e1a       0x28 Main.o
 .rodata._ZN4XRayC2EPv.str2.2
                0x0000000001815e42        0xc Main.o
 .rodata._ZN11SeeNameTagsC2Ev.str2.2
                0x0000000001815e4e       0x1c Main.o
 .rodata._ZN15HealthIndicator5getHPEPN2mc6PlayerE.str1.1
                0x0000000001815e6a        0x4 Main.o
                                          0xa (size before relaxing)
 .rodata._ZZN6Client8drawMenuEvENKUlP6ModuleiiE0_clES1_ii.str2.2
                0x0000000001815e6e       0x10 Main.o
 .rodata._ZN6Client4drawEb.str2.2
                0x0000000001815e7e       0x10 Main.o
 .rodata._Z18hook_onFrameInMenuv.str1.1
                0x0000000001815e8e       0x29 Main.o
 *fill*         0x0000000001815eb7        0x1 
 .rodata._ZN10CustomChatC2Ev.str2.2
                0x0000000001815eb8       0x18 Main.o
 .rodata._ZN10KeyStrokesC2Ev.str2.2
                0x0000000001815ed0       0x16 Main.o
 .rodata._Z6c_mainPv.str2.2
                0x0000000001815ee6       0xe0 Main.o
 .rodata.str2.2
                0x0000000001815fc6      0x216 Main.o
                                        0x236 (size before relaxing)
 *fill*         0x00000000018161dc        0x4 
 .rodata.cst8   0x00000000018161e0       0x18 Main.o
 .rodata.cst4   0x00000000018161f8       0xf0 Main.o
 .rodata._ZL28read_encoded_value_with_basehjPKhPj
                0x00000000018162e8       0x34 c:/devkitpro/devkitppc/bin/../lib/gcc/powerpc-eabi/12.1.0/../../../../powerpc-eabi/lib\libstdc++.a(eh_personality.o)
 .rodata._ZNK9__gnu_cxx24__concurrence_lock_error4whatEv.str1.4
                0x000000000181631c       0x24 c:/devkitpro/devkitppc/bin/../lib/gcc/powerpc-eabi/12.1.0/../../../../powerpc-eabi/lib\libstdc++.a(guard.o)
 .rodata._ZNK9__gnu_cxx26__concurrence_unlock_error4whatEv.str1.4
                0x0000000001816340       0x26 c:/devkitpro/devkitppc/bin/../lib/gcc/powerpc-eabi/12.1.0/../../../../powerpc-eabi/lib\libstdc++.a(guard.o)
 *fill*         0x0000000001816366        0x2 
 .rodata._ZNK9__gnu_cxx29__concurrence_broadcast_error4whatEv.str1.4
                0x0000000001816368       0x29 c:/devkitpro/devkitppc/bin/../lib/gcc/powerpc-eabi/12.1.0/../../../../powerpc-eabi/lib\libstdc++.a(guard.o)
 *fill*         0x0000000001816391        0x3 
 .rodata._ZNK9__gnu_cxx24__concurrence_wait_error4whatEv.str1.4
                0x0000000001816394       0x24 c:/devkitpro/devkitppc/bin/../lib/gcc/powerpc-eabi/12.1.0/../../../../powerpc-eabi/lib\libstdc++.a(guard.o)
 .rodata._ZTSN9__gnu_cxx24__concurrence_lock_errorE
                0x00000000018163b8       0x27 c:/devkitpro/devkitppc/bin/../lib/gcc/powerpc-eabi/12.1.0/../../../../powerpc-eabi/lib\libstdc++.a(guard.o)
                0x00000000018163b8                _ZTSN9__gnu_cxx24__concurrence_lock_errorE
 *fill*         0x00000000018163df        0x1 
 .rodata._ZTIN9__gnu_cxx24__concurrence_lock_errorE
                0x00000000018163e0        0xc c:/devkitpro/devkitppc/bin/../lib/gcc/powerpc-eabi/12.1.0/../../../../powerpc-eabi/lib\libstdc++.a(guard.o)
                0x00000000018163e0                _ZTIN9__gnu_cxx24__concurrence_lock_errorE
 .rodata._ZTSN9__gnu_cxx26__concurrence_unlock_errorE
                0x00000000018163ec       0x29 c:/devkitpro/devkitppc/bin/../lib/gcc/powerpc-eabi/12.1.0/../../../../powerpc-eabi/lib\libstdc++.a(guard.o)
                0x00000000018163ec                _ZTSN9__gnu_cxx26__concurrence_unlock_errorE
 *fill*         0x0000000001816415        0x3 
 .rodata._ZTIN9__gnu_cxx26__concurrence_unlock_errorE
                0x0000000001816418        0xc c:/devkitpro/devkitppc/bin/../lib/gcc/powerpc-eabi/12.1.0/../../../../powerpc-eabi/lib\libstdc++.a(guard.o)
                0x0000000001816418                _ZTIN9__gnu_cxx26__concurrence_unlock_errorE
 .rodata._ZTSN9__gnu_cxx29__concurrence_broadcast_errorE
                0x0000000001816424       0x2c c:/devkitpro/devkitppc/bin/../lib/gcc/powerpc-eabi/12.1.0/../../../../powerpc-eabi/lib\libstdc++.a(guard.o)
                0x0000000001816424                _ZTSN9__gnu_cxx29__concurrence_broadcast_errorE
 .rodata._ZTIN9__gnu_cxx29__concurrence_broadcast_errorE
                0x0000000001816450        0xc c:/devkitpro/devkitppc/bin/../lib/gcc/powerpc-eabi/12.1.0/../../../../powerpc-eabi/lib\libstdc++.a(guard.o)
                0x0000000001816450                _ZTIN9__gnu_cxx29__concurrence_broadcast_errorE
 .rodata._ZTSN9__gnu_cxx24__concurrence_wait_errorE
                0x000000000181645c       0x27 c:/devkitpro/devkitppc/bin/../lib/gcc/powerpc-eabi/12.1.0/../../../../powerpc-eabi/lib\libstdc++.a(guard.o)
                0x000000000181645c                _ZTSN9__gnu_cxx24__concurrence_wait_errorE
 *fill*         0x0000000001816483        0x1 
 .rodata._ZTIN9__gnu_cxx24__concurrence_wait_errorE
                0x0000000001816484        0xc c:/devkitpro/devkitppc/bin/../lib/gcc/powerpc-eabi/12.1.0/../../../../powerpc-eabi/lib\libstdc++.a(guard.o)
                0x0000000001816484                _ZTIN9__gnu_cxx24__concurrence_wait_errorE
 .rodata._ZTVN9__gnu_cxx24__concurrence_lock_errorE
                0x0000000001816490       0x14 c:/devkitpro/devkitppc/bin/../lib/gcc/powerpc-eabi/12.1.0/../../../../powerpc-eabi/lib\libstdc++.a(guard.o)
                0x0000000001816490                _ZTVN9__gnu_cxx24__concurrence_lock_errorE
 .rodata._ZTVN9__gnu_cxx26__concurrence_unlock_errorE
                0x00000000018164a4       0x14 c:/devkitpro/devkitppc/bin/../lib/gcc/powerpc-eabi/12.1.0/../../../../powerpc-eabi/lib\libstdc++.a(guard.o)
                0x00000000018164a4                _ZTVN9__gnu_cxx26__concurrence_unlock_errorE
 .rodata._ZTVN9__gnu_cxx29__concurrence_broadcast_errorE
                0x00000000018164b8       0x14 c:/devkitpro/devkitppc/bin/../lib/gcc/powerpc-eabi/12.1.0/../../../../powerpc-eabi/lib\libstdc++.a(guard.o)
                0x00000000018164b8                _ZTVN9__gnu_cxx29__concurrence_broadcast_errorE
 .rodata._ZTVN9__gnu_cxx24__concurrence_wait_errorE
                0x00000000018164cc       0x14 c:/devkitpro/devkitppc/bin/../lib/gcc/powerpc-eabi/12.1.0/../../../../powerpc-eabi/lib\libstdc++.a(guard.o)
                0x00000000018164cc                _ZTVN9__gnu_cxx24__concurrence_wait_errorE
 .rodata._ZTSN9__gnu_cxx20recursive_init_errorE
                0x00000000018164e0       0x23 c:/devkitpro/devkitppc/bin/../lib/gcc/powerpc-eabi/12.1.0/../../../../powerpc-eabi/lib\libstdc++.a(guard_error.o)
                0x00000000018164e0                _ZTSN9__gnu_cxx20recursive_init_errorE
 *fill*         0x0000000001816503        0x1 
 .rodata._ZTIN9__gnu_cxx20recursive_init_errorE
                0x0000000001816504        0xc c:/devkitpro/devkitppc/bin/../lib/gcc/powerpc-eabi/12.1.0/../../../../powerpc-eabi/lib\libstdc++.a(guard_error.o)
                0x0000000001816504                _ZTIN9__gnu_cxx20recursive_init_errorE
 .rodata._ZTVN9__gnu_cxx20recursive_init_errorE
                0x0000000001816510       0x14 c:/devkitpro/devkitppc/bin/../lib/gcc/powerpc-eabi/12.1.0/../../../../powerpc-eabi/lib\libstdc++.a(guard_error.o)
                0x0000000001816510                _ZTVN9__gnu_cxx20recursive_init_errorE
 .rodata._ZTSN10__cxxabiv120__si_class_type_infoE
                0x0000000001816524       0x25 c:/devkitpro/devkitppc/bin/../lib/gcc/powerpc-eabi/12.1.0/../../../../powerpc-eabi/lib\libstdc++.a(si_class_type_info.o)
                0x0000000001816524                _ZTSN10__cxxabiv120__si_class_type_infoE
 *fill*         0x0000000001816549        0x3 
 .rodata._ZTIN10__cxxabiv120__si_class_type_infoE
                0x000000000181654c        0xc c:/devkitpro/devkitppc/bin/../lib/gcc/powerpc-eabi/12.1.0/../../../../powerpc-eabi/lib\libstdc++.a(si_class_type_info.o)
                0x000000000181654c                _ZTIN10__cxxabiv120__si_class_type_infoE
 .rodata._ZTVN10__cxxabiv120__si_class_type_infoE
                0x0000000001816558       0x2c c:/devkitpro/devkitppc/bin/../lib/gcc/powerpc-eabi/12.1.0/../../../../powerpc-eabi/lib\libstdc++.a(si_class_type_info.o)
                0x0000000001816558                _ZTVN10__cxxabiv120__si_class_type_infoE
 .rodata._ZTSSt9type_info
                0x0000000001816584        0xd c:/devkitpro/devkitppc/bin/../lib/gcc/powerpc-eabi/12.1.0/../../../../powerpc-eabi/lib\libstdc++.a(tinfo.o)
                0x0000000001816584                _ZTSSt9type_info
 *fill*         0x0000000001816591        0x3 
 .rodata._ZNKSt20bad_array_new_length4whatEv.str1.4
                0x0000000001816594       0x1a c:/devkitpro/devkitppc/bin/../lib/gcc/powerpc-eabi/12.1.0/../../../../powerpc-eabi/lib\libstdc++.a(bad_array_new.o)
 *fill*         0x00000000018165ae        0x2 
 .rodata._ZTSSt20bad_array_new_length
                0x00000000018165b0       0x19 c:/devkitpro/devkitppc/bin/../lib/gcc/powerpc-eabi/12.1.0/../../../../powerpc-eabi/lib\libstdc++.a(bad_array_new.o)
                0x00000000018165b0                _ZTSSt20bad_array_new_length
 *fill*         0x00000000018165c9        0x3 
 .rodata._ZTISt20bad_array_new_length
                0x00000000018165cc        0xc c:/devkitpro/devkitppc/bin/../lib/gcc/powerpc-eabi/12.1.0/../../../../powerpc-eabi/lib\libstdc++.a(bad_array_new.o)
                0x00000000018165cc                _ZTISt20bad_array_new_length
 .rodata._ZTVSt20bad_array_new_length
                0x00000000018165d8       0x14 c:/devkitpro/devkitppc/bin/../lib/gcc/powerpc-eabi/12.1.0/../../../../powerpc-eabi/lib\libstdc++.a(bad_array_new.o)
                0x00000000018165d8                _ZTVSt20bad_array_new_length
 .rodata._ZTSN10__cxxabiv117__class_type_infoE
                0x00000000018165ec       0x22 c:/devkitpro/devkitppc/bin/../lib/gcc/powerpc-eabi/12.1.0/../../../../powerpc-eabi/lib\libstdc++.a(class_type_info.o)
                0x00000000018165ec                _ZTSN10__cxxabiv117__class_type_infoE
 *fill*         0x000000000181660e        0x2 
 .rodata._ZTIN10__cxxabiv117__class_type_infoE
                0x0000000001816610        0xc c:/devkitpro/devkitppc/bin/../lib/gcc/powerpc-eabi/12.1.0/../../../../powerpc-eabi/lib\libstdc++.a(class_type_info.o)
                0x0000000001816610                _ZTIN10__cxxabiv117__class_type_infoE
 .rodata._ZTVN10__cxxabiv117__class_type_infoE
                0x000000000181661c       0x2c c:/devkitpro/devkitppc/bin/../lib/gcc/powerpc-eabi/12.1.0/../../../../powerpc-eabi/lib\libstdc++.a(class_type_info.o)
                0x000000000181661c                _ZTVN10__cxxabiv117__class_type_infoE
 .rodata._ZNKSt9exception4whatEv.str1.4
                0x0000000001816648        0xf c:/devkitpro/devkitppc/bin/../lib/gcc/powerpc-eabi/12.1.0/../../../../powerpc-eabi/lib\libstdc++.a(eh_exception.o)
 *fill*         0x0000000001816657        0x1 
 .rodata._ZTSSt9exception
                0x0000000001816658        0xd c:/devkitpro/devkitppc/bin/../lib/gcc/powerpc-eabi/12.1.0/../../../../powerpc-eabi/lib\libstdc++.a(eh_exception.o)
                0x0000000001816658                _ZTSSt9exception
 *fill*         0x0000000001816665        0x3 
 .rodata._ZTSN10__cxxabiv115__forced_unwindE
                0x0000000001816668       0x20 c:/devkitpro/devkitppc/bin/../lib/gcc/powerpc-eabi/12.1.0/../../../../powerpc-eabi/lib\libstdc++.a(eh_exception.o)
                0x0000000001816668                _ZTSN10__cxxabiv115__forced_unwindE
 .rodata._ZTSN10__cxxabiv119__foreign_exceptionE
                0x0000000001816688       0x24 c:/devkitpro/devkitppc/bin/../lib/gcc/powerpc-eabi/12.1.0/../../../../powerpc-eabi/lib\libstdc++.a(eh_exception.o)
                0x0000000001816688                _ZTSN10__cxxabiv119__foreign_exceptionE
 .rodata._ZNKSt9bad_alloc4whatEv.str1.4
                0x00000000018166ac        0xf c:/devkitpro/devkitppc/bin/../lib/gcc/powerpc-eabi/12.1.0/../../../../powerpc-eabi/lib\libstdc++.a(bad_alloc.o)
 *fill*         0x00000000018166bb        0x1 
 .rodata._ZTSSt9bad_alloc
                0x00000000018166bc        0xd c:/devkitpro/devkitppc/bin/../lib/gcc/powerpc-eabi/12.1.0/../../../../powerpc-eabi/lib\libstdc++.a(bad_alloc.o)
                0x00000000018166bc                _ZTSSt9bad_alloc
 *fill*         0x00000000018166c9        0x3 
 .rodata._ZTISt9bad_alloc
                0x00000000018166cc        0xc c:/devkitpro/devkitppc/bin/../lib/gcc/powerpc-eabi/12.1.0/../../../../powerpc-eabi/lib\libstdc++.a(bad_alloc.o)
                0x00000000018166cc                _ZTISt9bad_alloc
 .rodata._ZTVSt9bad_alloc
                0x00000000018166d8       0x14 c:/devkitpro/devkitppc/bin/../lib/gcc/powerpc-eabi/12.1.0/../../../../powerpc-eabi/lib\libstdc++.a(bad_alloc.o)
                0x00000000018166d8                _ZTVSt9bad_alloc
 .rodata.cst4   0x00000000018166ec        0x4 c:/devkitpro/devkitppc/bin/../lib/gcc/powerpc-eabi/12.1.0/../../../../powerpc-eabi/lib\libm.a(lib_a-wf_sqrt.o)
 .rodata.cst4   0x00000000018166ec        0x4 c:/devkitpro/devkitppc/bin/../lib/gcc/powerpc-eabi/12.1.0/../../../../powerpc-eabi/lib\libm.a(lib_a-w_sqrt.o)
 *fill*         0x00000000018166ec        0x4 
 .rodata.CSWTCH.9
                0x00000000018166f0       0x18 c:/devkitpro/devkitppc/bin/../lib/gcc/powerpc-eabi/12.1.0/../../../../powerpc-eabi/lib\libm.a(lib_a-e_atan2.o)
 .rodata.CSWTCH.8
                0x0000000001816708       0x18 c:/devkitpro/devkitppc/bin/../lib/gcc/powerpc-eabi/12.1.0/../../../../powerpc-eabi/lib\libm.a(lib_a-e_atan2.o)
 .rodata.cst8   0x0000000001816720       0x30 c:/devkitpro/devkitppc/bin/../lib/gcc/powerpc-eabi/12.1.0/../../../../powerpc-eabi/lib\libm.a(lib_a-e_atan2.o)
 .rodata.cst4   0x0000000001816750        0x4 c:/devkitpro/devkitppc/bin/../lib/gcc/powerpc-eabi/12.1.0/../../../../powerpc-eabi/lib\libm.a(lib_a-e_atan2.o)
 .rodata.atanlo
                0x0000000001816750       0x20 c:/devkitpro/devkitppc/bin/../lib/gcc/powerpc-eabi/12.1.0/../../../../powerpc-eabi/lib\libm.a(lib_a-s_atan.o)
 .rodata.atanhi
                0x0000000001816770       0x20 c:/devkitpro/devkitppc/bin/../lib/gcc/powerpc-eabi/12.1.0/../../../../powerpc-eabi/lib\libm.a(lib_a-s_atan.o)
 .rodata.cst8   0x0000000001816790       0x60 c:/devkitpro/devkitppc/bin/../lib/gcc/powerpc-eabi/12.1.0/../../../../powerpc-eabi/lib\libm.a(lib_a-s_atan.o)
                                         0x70 (size before relaxing)
 .rodata.cst4   0x00000000018167f0       0x10 c:/devkitpro/devkitppc/bin/../lib/gcc/powerpc-eabi/12.1.0/../../../../powerpc-eabi/lib\libm.a(lib_a-s_atan.o)
 .rodata.cst4   0x00000000018167f0        0x4 c:/devkitpro/devkitppc/bin/../lib/gcc/powerpc-eabi/12.1.0/../../../../powerpc-eabi/lib\libm.a(lib_a-sf_cos.o)
 .rodata.cst4   0x00000000018167f0        0x4 c:/devkitpro/devkitppc/bin/../lib/gcc/powerpc-eabi/12.1.0/../../../../powerpc-eabi/lib\libm.a(lib_a-sf_sin.o)
 .rodata.npio2_hw
                0x00000000018167f0       0x80 c:/devkitpro/devkitppc/bin/../lib/gcc/powerpc-eabi/12.1.0/../../../../powerpc-eabi/lib\libm.a(lib_a-ef_rem_pio2.o)
 .rodata.two_over_pi
                0x0000000001816870      0x318 c:/devkitpro/devkitppc/bin/../lib/gcc/powerpc-eabi/12.1.0/../../../../powerpc-eabi/lib\libm.a(lib_a-ef_rem_pio2.o)
 .rodata.cst4   0x0000000001816b88       0x20 c:/devkitpro/devkitppc/bin/../lib/gcc/powerpc-eabi/12.1.0/../../../../powerpc-eabi/lib\libm.a(lib_a-ef_rem_pio2.o)
                                         0x2c (size before relaxing)
 .rodata.cst4   0x0000000001816ba8       0x20 c:/devkitpro/devkitppc/bin/../lib/gcc/powerpc-eabi/12.1.0/../../../../powerpc-eabi/lib\libm.a(lib_a-kf_cos.o)
                                         0x28 (size before relaxing)
 .rodata.PIo2   0x0000000001816bc8       0x2c c:/devkitpro/devkitppc/bin/../lib/gcc/powerpc-eabi/12.1.0/../../../../powerpc-eabi/lib\libm.a(lib_a-kf_rem_pio2.o)
 .rodata.init_jk
                0x0000000001816bf4        0xc c:/devkitpro/devkitppc/bin/../lib/gcc/powerpc-eabi/12.1.0/../../../../powerpc-eabi/lib\libm.a(lib_a-kf_rem_pio2.o)
 .rodata.cst4   0x0000000001816c00        0x8 c:/devkitpro/devkitppc/bin/../lib/gcc/powerpc-eabi/12.1.0/../../../../powerpc-eabi/lib\libm.a(lib_a-kf_rem_pio2.o)
                                         0x24 (size before relaxing)
 .rodata.cst4   0x0000000001816c08       0x1c c:/devkitpro/devkitppc/bin/../lib/gcc/powerpc-eabi/12.1.0/../../../../powerpc-eabi/lib\libm.a(lib_a-kf_sin.o)
                                         0x20 (size before relaxing)
 .rodata.cst4   0x0000000001816c24        0x4 c:/devkitpro/devkitppc/bin/../lib/gcc/powerpc-eabi/12.1.0/../../../../powerpc-eabi/lib\libm.a(lib_a-sf_floor.o)
                                         0x10 (size before relaxing)
 .rodata.cst4   0x0000000001816c28       0x14 c:/devkitpro/devkitppc/bin/../lib/gcc/powerpc-eabi/12.1.0/../../../../powerpc-eabi/lib\libm.a(lib_a-sf_scalbn.o)
                                         0x18 (size before relaxing)
 .rodata.read_encoded_value
                0x0000000001816c3c       0x34 c:/devkitpro/devkitppc/bin/../lib/gcc/powerpc-eabi/12.1.0\libgcc.a(unwind-dw2.o)
 .rodata.execute_stack_op
                0x0000000001816c70      0x29c c:/devkitpro/devkitppc/bin/../lib/gcc/powerpc-eabi/12.1.0\libgcc.a(unwind-dw2.o)
 .rodata.uw_update_context_1
                0x0000000001816f0c       0x18 c:/devkitpro/devkitppc/bin/../lib/gcc/powerpc-eabi/12.1.0\libgcc.a(unwind-dw2.o)
 .rodata.execute_cfa_program
                0x0000000001816f24       0xc0 c:/devkitpro/devkitppc/bin/../lib/gcc/powerpc-eabi/12.1.0\libgcc.a(unwind-dw2.o)
 .rodata.uw_frame_state_for
                0x0000000001816fe4       0x48 c:/devkitpro/devkitppc/bin/../lib/gcc/powerpc-eabi/12.1.0\libgcc.a(unwind-dw2.o)
 .rodata.read_encoded_value_with_base
                0x000000000181702c       0x34 c:/devkitpro/devkitppc/bin/../lib/gcc/powerpc-eabi/12.1.0\libgcc.a(unwind-dw2-fde.o)
 .rodata.terminator.1
                0x0000000001817060        0x8 c:/devkitpro/devkitppc/bin/../lib/gcc/powerpc-eabi/12.1.0\libgcc.a(unwind-dw2-fde.o)
 .rodata.abort.str1.4
                0x0000000001817068        0xf c:/devkitpro/devkitppc/bin/../lib/gcc/powerpc-eabi/12.1.0/../../../../powerpc-eabi/lib\libsysbase.a(abort.o)
 *fill*         0x0000000001817077        0x1 
 .rodata.AddDevice.str1.4
                0x0000000001817078        0x8 c:/devkitpro/devkitppc/bin/../lib/gcc/powerpc-eabi/12.1.0/../../../../powerpc-eabi/lib\libsysbase.a(iosupport.o)
 .rodata.dotab_stdnull
                0x0000000001817080       0x70 c:/devkitpro/devkitppc/bin/../lib/gcc/powerpc-eabi/12.1.0/../../../../powerpc-eabi/lib\libsysbase.a(iosupport.o)
                0x0000000001817080                dotab_stdnull
 *(.bss)
 *(.bss.*)
 .bss._ZZ18hook_onFrameInMenuvE12aimbotThread
                0x00000000018170f0        0x4 Main.o
 *fill*         0x00000000018170f4        0x4 
 .bss.lPlayer_Position
                0x00000000018170f8       0x18 Main.o
                0x00000000018170f8                lPlayer_Position
 .bss.instructionBuffer
                0x0000000001817110      0x400 Main.o
                0x0000000001817110                instructionBuffer
 .bss._ZZN12_GLOBAL__N_115get_static_condEvE4once
                0x0000000001817510        0x4 c:/devkitpro/devkitppc/bin/../lib/gcc/powerpc-eabi/12.1.0/../../../../powerpc-eabi/lib\libstdc++.a(guard.o)
 .bss._ZN12_GLOBAL__N_19fake_condE
                0x0000000001817514       0x1c c:/devkitpro/devkitppc/bin/../lib/gcc/powerpc-eabi/12.1.0/../../../../powerpc-eabi/lib\libstdc++.a(guard.o)
 .bss._ZN12_GLOBAL__N_1L11static_condE
                0x0000000001817530        0x4 c:/devkitpro/devkitppc/bin/../lib/gcc/powerpc-eabi/12.1.0/../../../../powerpc-eabi/lib\libstdc++.a(guard.o)
 .bss._ZZN12_GLOBAL__N_116get_static_mutexEvE4once
                0x0000000001817534        0x4 c:/devkitpro/devkitppc/bin/../lib/gcc/powerpc-eabi/12.1.0/../../../../powerpc-eabi/lib\libstdc++.a(guard.o)
 .bss._ZN12_GLOBAL__N_110fake_mutexE
                0x0000000001817538       0x2c c:/devkitpro/devkitppc/bin/../lib/gcc/powerpc-eabi/12.1.0/../../../../powerpc-eabi/lib\libstdc++.a(guard.o)
 .bss._ZN12_GLOBAL__N_1L12static_mutexE
                0x0000000001817564        0x4 c:/devkitpro/devkitppc/bin/../lib/gcc/powerpc-eabi/12.1.0/../../../../powerpc-eabi/lib\libstdc++.a(guard.o)
 .bss._ZN12_GLOBAL__N_114emergency_poolE
                0x0000000001817568       0x38 c:/devkitpro/devkitppc/bin/../lib/gcc/powerpc-eabi/12.1.0/../../../../powerpc-eabi/lib\libstdc++.a(eh_alloc.o)
 .bss._ZL4init  0x00000000018175a0        0x8 c:/devkitpro/devkitppc/bin/../lib/gcc/powerpc-eabi/12.1.0/../../../../powerpc-eabi/lib\libstdc++.a(eh_globals.o)
 .bss._ZL10eh_globals
                0x00000000018175a8        0x8 c:/devkitpro/devkitppc/bin/../lib/gcc/powerpc-eabi/12.1.0/../../../../powerpc-eabi/lib\libstdc++.a(eh_globals.o)
 .bss.once_regsizes.0
                0x00000000018175b0        0x4 c:/devkitpro/devkitppc/bin/../lib/gcc/powerpc-eabi/12.1.0\libgcc.a(unwind-dw2.o)
 .bss.dwarf_reg_size_table
                0x00000000018175b4       0x70 c:/devkitpro/devkitppc/bin/../lib/gcc/powerpc-eabi/12.1.0\libgcc.a(unwind-dw2.o)
 .bss.marker.0  0x0000000001817624        0x4 c:/devkitpro/devkitppc/bin/../lib/gcc/powerpc-eabi/12.1.0\libgcc.a(unwind-dw2-fde.o)
 .bss.once.2    0x0000000001817628        0x4 c:/devkitpro/devkitppc/bin/../lib/gcc/powerpc-eabi/12.1.0\libgcc.a(unwind-dw2-fde.o)
 .bss.object_mutex
                0x000000000181762c       0x2c c:/devkitpro/devkitppc/bin/../lib/gcc/powerpc-eabi/12.1.0\libgcc.a(unwind-dw2-fde.o)
 .bss.seen_objects
                0x0000000001817658        0x4 c:/devkitpro/devkitppc/bin/../lib/gcc/powerpc-eabi/12.1.0\libgcc.a(unwind-dw2-fde.o)
 .bss.unseen_objects
                0x000000000181765c        0x4 c:/devkitpro/devkitppc/bin/../lib/gcc/powerpc-eabi/12.1.0\libgcc.a(unwind-dw2-fde.o)
 .bss.__malloc_current_mallinfo
                0x0000000001817660       0x28 c:/devkitpro/devkitppc/bin/../lib/gcc/powerpc-eabi/12.1.0/../../../../powerpc-eabi/lib\libc.a(lib_a-mallocr.o)
                0x0000000001817660                __malloc_current_mallinfo
 *(.sbss)
 *(.sbss.*)
 .sbss.lPlayer_Pitch
                0x0000000001817688        0x4 Main.o
                0x0000000001817688                lPlayer_Pitch
 .sbss.lPlayer_Yaw
                0x000000000181768c        0x4 Main.o
                0x000000000181768c                lPlayer_Yaw
 .sbss.staticXRay
                0x0000000001817690        0x4 Main.o
                0x0000000001817690                staticXRay
 .sbss.staticSeeNameTags
                0x0000000001817694        0x4 Main.o
                0x0000000001817694                staticSeeNameTags
 .sbss._ZZN8Scaffold9updatePosEbE5pitch
                0x0000000001817698        0x4 Main.o
                0x0000000001817698                _ZZN8Scaffold9updatePosEbE5pitch
 .sbss._ZZN8Scaffold9updatePosEbE3yaw
                0x000000000181769c        0x4 Main.o
                0x000000000181769c                _ZZN8Scaffold9updatePosEbE3yaw
 .sbss.staticScaffold
                0x00000000018176a0        0x4 Main.o
                0x00000000018176a0                staticScaffold
 .sbss.staticKillAura
                0x00000000018176a4        0x4 Main.o
                0x00000000018176a4                staticKillAura
 .sbss._ZZN10KeyStrokes4drawEvE8isActive
                0x00000000018176a8        0x1 Main.o
                0x00000000018176a8                _ZZN10KeyStrokes4drawEvE8isActive
 *fill*         0x00000000018176a9        0x7 
 .sbss._ZGVZN10KeyStrokes4drawEvE8lastTime
                0x00000000018176b0        0x8 Main.o
                0x00000000018176b0                _ZGVZN10KeyStrokes4drawEvE8lastTime
 .sbss._ZZN10KeyStrokes4drawEvE8lastTime
                0x00000000018176b8        0x8 Main.o
                0x00000000018176b8                _ZZN10KeyStrokes4drawEvE8lastTime
 .sbss.staticKeyStrokes
                0x00000000018176c0        0x4 Main.o
                0x00000000018176c0                staticKeyStrokes
 .sbss.staticJesus
                0x00000000018176c4        0x4 Main.o
                0x00000000018176c4                staticJesus
 .sbss.staticHealthIndicator
                0x00000000018176c8        0x4 Main.o
                0x00000000018176c8                staticHealthIndicator
 .sbss.staticFofBypass
                0x00000000018176cc        0x4 Main.o
                0x00000000018176cc                staticFofBypass
 .sbss.staticFlight
                0x00000000018176d0        0x4 Main.o
                0x00000000018176d0                staticFlight
 .sbss.staticESP
                0x00000000018176d4        0x4 Main.o
                0x00000000018176d4                staticESP
 .sbss.staticCustomSky
                0x00000000018176d8        0x4 Main.o
                0x00000000018176d8                staticCustomSky
 .sbss.staticCustomChat
                0x00000000018176dc        0x4 Main.o
                0x00000000018176dc                staticCustomChat
 .sbss._ZZN6Client10fpsCounterEvE8basetime
                0x00000000018176e0        0x8 Main.o
                0x00000000018176e0                _ZZN6Client10fpsCounterEvE8basetime
 .sbss._ZZN6Client10fpsCounterEvE5count
                0x00000000018176e8        0x4 Main.o
                0x00000000018176e8                _ZZN6Client10fpsCounterEvE5count
 .sbss._ZZN6Client8drawMenuEvE13wasBtnPressed
                0x00000000018176ec        0x1 Main.o
                0x00000000018176ec                _ZZN6Client8drawMenuEvE13wasBtnPressed
 *fill*         0x00000000018176ed        0x3 
 .sbss._ZZN6Client8drawMenuEvE8lastTime
                0x00000000018176f0        0x8 Main.o
                0x00000000018176f0                _ZZN6Client8drawMenuEvE8lastTime
 .sbss._ZZN6Client8drawMenuEvE13lastClickTime
                0x00000000018176f8        0x8 Main.o
                0x00000000018176f8                _ZZN6Client8drawMenuEvE13lastClickTime
 .sbss._ZZZN6Client8drawMenuEvENKUlbRyS0_E_clEbS0_S0_E14lastBtnPressed
                0x0000000001817700        0x4 Main.o
                0x0000000001817700                _ZZZN6Client8drawMenuEvENKUlbRyS0_E_clEbS0_S0_E14lastBtnPressed
 .sbss._ZZN6Client4drawEbE8isActive
                0x0000000001817704        0x1 Main.o
                0x0000000001817704                _ZZN6Client4drawEbE8isActive
 *fill*         0x0000000001817705        0x3 
 .sbss.staticClient
                0x0000000001817708        0x4 Main.o
                0x0000000001817708                staticClient
 .sbss.staticChestESP
                0x000000000181770c        0x4 Main.o
                0x000000000181770c                staticChestESP
 .sbss.staticAntiKick
                0x0000000001817710        0x4 Main.o
                0x0000000001817710                staticAntiKick
 .sbss.staticAimbot
                0x0000000001817714        0x4 Main.o
                0x0000000001817714                staticAimbot
 .sbss._ZN2xf3GUI14TextColorIndexE
                0x0000000001817718        0x4 Main.o
                0x0000000001817718                _ZN2xf3GUI14TextColorIndexE
 .sbss.MEMFreeToExpHeap
                0x000000000181771c        0x4 Main.o
                0x000000000181771c                MEMFreeToExpHeap
 .sbss.MEMDestroyExpHeap
                0x0000000001817720        0x4 Main.o
                0x0000000001817720                MEMDestroyExpHeap
 .sbss.MEMCreateExpHeapEx
                0x0000000001817724        0x4 Main.o
                0x0000000001817724                MEMCreateExpHeapEx
 .sbss.MEMAllocFromExpHeapEx
                0x0000000001817728        0x4 Main.o
                0x0000000001817728                MEMAllocFromExpHeapEx
 .sbss.MEMFreeToFrmHeap
                0x000000000181772c        0x4 Main.o
                0x000000000181772c                MEMFreeToFrmHeap
 .sbss.MEMAllocFromFrmHeapEx
                0x0000000001817730        0x4 Main.o
                0x0000000001817730                MEMAllocFromFrmHeapEx
 .sbss.MEMGetAllocatableSizeForFrmHeapEx
                0x0000000001817734        0x4 Main.o
                0x0000000001817734                MEMGetAllocatableSizeForFrmHeapEx
 .sbss.MEMGetBaseHeapHandle
                0x0000000001817738        0x4 Main.o
                0x0000000001817738                MEMGetBaseHeapHandle
 .sbss.pMEMFreeToDefaultHeap
                0x000000000181773c        0x4 Main.o
                0x000000000181773c                pMEMFreeToDefaultHeap
 .sbss.pMEMAllocFromDefaultHeap
                0x0000000001817740        0x4 Main.o
                0x0000000001817740                pMEMAllocFromDefaultHeap
 .sbss.pMEMAllocFromDefaultHeapEx
                0x0000000001817744        0x4 Main.o
                0x0000000001817744                pMEMAllocFromDefaultHeapEx
 .sbss.OSSetExceptionCallback
                0x0000000001817748        0x4 Main.o
                0x0000000001817748                OSSetExceptionCallback
 .sbss.MCP_Close
                0x000000000181774c        0x4 Main.o
                0x000000000181774c                MCP_Close
 .sbss.MCP_GetDeviceId
                0x0000000001817750        0x4 Main.o
                0x0000000001817750                MCP_GetDeviceId
 .sbss.MCP_Open
                0x0000000001817754        0x4 Main.o
                0x0000000001817754                MCP_Open
 .sbss.OSConsoleWrite
                0x0000000001817758        0x4 Main.o
                0x0000000001817758                OSConsoleWrite
 .sbss.OSResumeThread
                0x000000000181775c        0x4 Main.o
                0x000000000181775c                OSResumeThread
 .sbss.OSCreateThread
                0x0000000001817760        0x4 Main.o
                0x0000000001817760                OSCreateThread
 .sbss.OSScreenFlipBuffersEx
                0x0000000001817764        0x4 Main.o
                0x0000000001817764                OSScreenFlipBuffersEx
 .sbss.OSScreenPutFontEx
                0x0000000001817768        0x4 Main.o
                0x0000000001817768                OSScreenPutFontEx
 .sbss.OSScreenClearBufferEx
                0x000000000181776c        0x4 Main.o
                0x000000000181776c                OSScreenClearBufferEx
 .sbss.OSScreenEnableEx
                0x0000000001817770        0x4 Main.o
                0x0000000001817770                OSScreenEnableEx
 .sbss.OSScreenSetBufferEx
                0x0000000001817774        0x4 Main.o
                0x0000000001817774                OSScreenSetBufferEx
 .sbss.OSScreenGetBufferSizeEx
                0x0000000001817778        0x4 Main.o
                0x0000000001817778                OSScreenGetBufferSizeEx
 .sbss.OSScreenShutdown
                0x000000000181777c        0x4 Main.o
                0x000000000181777c                OSScreenShutdown
 .sbss.OSScreenInit
                0x0000000001817780        0x4 Main.o
                0x0000000001817780                OSScreenInit
 .sbss.OSFatal  0x0000000001817784        0x4 Main.o
                0x0000000001817784                OSFatal
 .sbss.OSEffectiveToPhysical
                0x0000000001817788        0x4 Main.o
                0x0000000001817788                OSEffectiveToPhysical
 .sbss.DCFlushRange
                0x000000000181778c        0x4 Main.o
                0x000000000181778c                DCFlushRange
 .sbss.GX2WaitForVsync
                0x0000000001817790        0x4 Main.o
                0x0000000001817790                GX2WaitForVsync
 .sbss.VPADRead
                0x0000000001817794        0x4 Main.o
                0x0000000001817794                VPADRead
 .sbss.VPADInit
                0x0000000001817798        0x4 Main.o
                0x0000000001817798                VPADInit
 .sbss.inet_aton
                0x000000000181779c        0x4 Main.o
                0x000000000181779c                inet_aton
 .sbss.inet_ntoa
                0x00000000018177a0        0x4 Main.o
                0x00000000018177a0                inet_ntoa
 .sbss.setsockopt
                0x00000000018177a4        0x4 Main.o
                0x00000000018177a4                setsockopt
 .sbss.sendto   0x00000000018177a8        0x4 Main.o
                0x00000000018177a8                sendto
 .sbss.recv     0x00000000018177ac        0x4 Main.o
                0x00000000018177ac                recv
 .sbss.send     0x00000000018177b0        0x4 Main.o
                0x00000000018177b0                send
 .sbss.accept   0x00000000018177b4        0x4 Main.o
                0x00000000018177b4                accept
 .sbss.listen   0x00000000018177b8        0x4 Main.o
                0x00000000018177b8                listen
 .sbss.bind     0x00000000018177bc        0x4 Main.o
                0x00000000018177bc                bind
 .sbss.connect  0x00000000018177c0        0x4 Main.o
                0x00000000018177c0                connect
 .sbss.socketclose
                0x00000000018177c4        0x4 Main.o
                0x00000000018177c4                socketclose
 .sbss.socket   0x00000000018177c8        0x4 Main.o
                0x00000000018177c8                socket
 .sbss.socket_lib_finish
                0x00000000018177cc        0x4 Main.o
                0x00000000018177cc                socket_lib_finish
 .sbss.socket_lib_init
                0x00000000018177d0        0x4 Main.o
                0x00000000018177d0                socket_lib_init
 .sbss.hostIpAddress
                0x00000000018177d4        0x4 Main.o
                0x00000000018177d4                hostIpAddress
 .sbss.curl_slist_append
                0x00000000018177d8        0x4 Main.o
                0x00000000018177d8                curl_slist_append
 .sbss.curl_easy_setopt
                0x00000000018177dc        0x4 Main.o
                0x00000000018177dc                curl_easy_setopt
 .sbss.curl_easy_perform
                0x00000000018177e0        0x4 Main.o
                0x00000000018177e0                curl_easy_perform
 .sbss.curl_easy_cleanup
                0x00000000018177e4        0x4 Main.o
                0x00000000018177e4                curl_easy_cleanup
 .sbss.curl_easy_init
                0x00000000018177e8        0x4 Main.o
                0x00000000018177e8                curl_easy_init
 .sbss.__test_index
                0x00000000018177ec        0x4 Main.o
                0x00000000018177ec                __test_index
 .sbss.real_instructions
                0x00000000018177f0        0x8 Main.o
                0x00000000018177f0                real_instructions
 .sbss.OSDynLoad_FindExport
                0x00000000018177f8        0x4 Main.o
                0x00000000018177f8                OSDynLoad_FindExport
 .sbss.OSDynLoad_Acquire
                0x00000000018177fc        0x4 Main.o
                0x00000000018177fc                OSDynLoad_Acquire
 .sbss.__malloc_max_total_mem
                0x0000000001817800        0x4 c:/devkitpro/devkitppc/bin/../lib/gcc/powerpc-eabi/12.1.0/../../../../powerpc-eabi/lib\libc.a(lib_a-mallocr.o)
                0x0000000001817800                __malloc_max_total_mem
 .sbss.__malloc_max_sbrked_mem
                0x0000000001817804        0x4 c:/devkitpro/devkitppc/bin/../lib/gcc/powerpc-eabi/12.1.0/../../../../powerpc-eabi/lib\libc.a(lib_a-mallocr.o)
                0x0000000001817804                __malloc_max_sbrked_mem
 .sbss.__malloc_top_pad
                0x0000000001817808        0x4 c:/devkitpro/devkitppc/bin/../lib/gcc/powerpc-eabi/12.1.0/../../../../powerpc-eabi/lib\libc.a(lib_a-mallocr.o)
                0x0000000001817808                __malloc_top_pad
 *(.data.*)
 .data._ZL11bucket_heap
                0x000000000181780c        0x4 Main.o
 .data._ZL9mem1_heap
                0x0000000001817810        0x4 Main.o
 .data.tiny     0x0000000001817814        0x4 c:/devkitpro/devkitppc/bin/../lib/gcc/powerpc-eabi/12.1.0/../../../../powerpc-eabi/lib\libm.a(lib_a-ef_sqrt.o)
 .data.one      0x0000000001817818        0x4 c:/devkitpro/devkitppc/bin/../lib/gcc/powerpc-eabi/12.1.0/../../../../powerpc-eabi/lib\libm.a(lib_a-ef_sqrt.o)
 *fill*         0x000000000181781c        0x4 
 .data.tiny     0x0000000001817820        0x8 c:/devkitpro/devkitppc/bin/../lib/gcc/powerpc-eabi/12.1.0/../../../../powerpc-eabi/lib\libm.a(lib_a-e_sqrt.o)
 .data.one      0x0000000001817828        0x8 c:/devkitpro/devkitppc/bin/../lib/gcc/powerpc-eabi/12.1.0/../../../../powerpc-eabi/lib\libm.a(lib_a-e_sqrt.o)
 .data.impure_data
                0x0000000001817830      0x448 c:/devkitpro/devkitppc/bin/../lib/gcc/powerpc-eabi/12.1.0/../../../../powerpc-eabi/lib\libc.a(lib_a-impure.o)
 .data.__malloc_av_
                0x0000000001817c78      0x408 c:/devkitpro/devkitppc/bin/../lib/gcc/powerpc-eabi/12.1.0/../../../../powerpc-eabi/lib\libc.a(lib_a-mallocr.o)
                0x0000000001817c78                __malloc_av_
 .data.handles  0x0000000001818080     0x1000 c:/devkitpro/devkitppc/bin/../lib/gcc/powerpc-eabi/12.1.0/../../../../powerpc-eabi/lib\libsysbase.a(handle_manager.o)
 .data.__stderr_handle
                0x0000000001819080        0xc c:/devkitpro/devkitppc/bin/../lib/gcc/powerpc-eabi/12.1.0/../../../../powerpc-eabi/lib\libsysbase.a(handle_manager.o)
 .data.__stdout_handle
                0x000000000181908c        0xc c:/devkitpro/devkitppc/bin/../lib/gcc/powerpc-eabi/12.1.0/../../../../powerpc-eabi/lib\libsysbase.a(handle_manager.o)
 .data.__stdin_handle
                0x0000000001819098        0xc c:/devkitpro/devkitppc/bin/../lib/gcc/powerpc-eabi/12.1.0/../../../../powerpc-eabi/lib\libsysbase.a(handle_manager.o)
 .data.devoptab_list
                0x00000000018190a4       0x40 c:/devkitpro/devkitppc/bin/../lib/gcc/powerpc-eabi/12.1.0/../../../../powerpc-eabi/lib\libsysbase.a(iosupport.o)
                0x00000000018190a4                devoptab_list
                0x00000000018190e4                data_end = .
 .text          0x00000000018190e4       0x4c c:/devkitpro/devkitppc/bin/../lib/gcc/powerpc-eabi/12.1.0\libgcc.a(crtsavfpr.o)
                0x00000000018190e4                _savefpr_14
                0x00000000018190e8                _savefpr_15
                0x00000000018190ec                _savefpr_16
                0x00000000018190f0                _savefpr_17
                0x00000000018190f4                _savefpr_18
                0x00000000018190f8                _savefpr_19
                0x00000000018190fc                _savefpr_20
                0x0000000001819100                _savefpr_21
                0x0000000001819104                _savefpr_22
                0x0000000001819108                _savefpr_23
                0x000000000181910c                _savefpr_24
                0x0000000001819110                _savefpr_25
                0x0000000001819114                _savefpr_26
                0x0000000001819118                _savefpr_27
                0x000000000181911c                _savefpr_28
                0x0000000001819120                _savefpr_29
                0x0000000001819124                _savefpr_30
                0x0000000001819128                _savefpr_31
 .text          0x0000000001819130       0x58 c:/devkitpro/devkitppc/bin/../lib/gcc/powerpc-eabi/12.1.0\libgcc.a(crtresxfpr.o)
                0x0000000001819130                _restfpr_14_x
                0x0000000001819134                _restfpr_15_x
                0x0000000001819138                _restfpr_16_x
                0x000000000181913c                _restfpr_17_x
                0x0000000001819140                _restfpr_18_x
                0x0000000001819144                _restfpr_19_x
                0x0000000001819148                _restfpr_20_x
                0x000000000181914c                _restfpr_21_x
                0x0000000001819150                _restfpr_22_x
                0x0000000001819154                _restfpr_23_x
                0x0000000001819158                _restfpr_24_x
                0x000000000181915c                _restfpr_25_x
                0x0000000001819160                _restfpr_26_x
                0x0000000001819164                _restfpr_27_x
                0x0000000001819168                _restfpr_28_x
                0x000000000181916c                _restfpr_29_x
                0x0000000001819170                _restfpr_30_x
                0x0000000001819174                _restfpr_31_x
 .text          0x0000000001819188       0x58 c:/devkitpro/devkitppc/bin/../lib/gcc/powerpc-eabi/12.1.0\libgcc.a(crtresxgpr.o)
                0x0000000001819188                _restgpr_14_x
                0x000000000181918c                _restgpr_15_x
                0x0000000001819190                _restgpr_16_x
                0x0000000001819194                _restgpr_17_x
                0x0000000001819198                _restgpr_18_x
                0x000000000181919c                _restgpr_19_x
                0x00000000018191a0                _restgpr_20_x
                0x00000000018191a4                _restgpr_21_x
                0x00000000018191a8                _restgpr_22_x
                0x00000000018191ac                _restgpr_23_x
                0x00000000018191b0                _restgpr_24_x
                0x00000000018191b4                _restgpr_25_x
                0x00000000018191b8                _restgpr_26_x
                0x00000000018191bc                _restgpr_27_x
                0x00000000018191c0                _restgpr_28_x
                0x00000000018191c4                _restgpr_29_x
                0x00000000018191c8                _restgpr_30_x
                0x00000000018191cc                _restgpr_31_x
OUTPUT(../negative_dbg.elf elf32-powerpc)

.glink          0x00000000018191e0        0x0
 .glink         0x00000000018191e0        0x0 Main.o

.branch_lt      0x00000000018191e0        0x0
 .branch_lt     0x00000000018191e0        0x0 Main.o

.rela.dyn       0x00000000018191e0        0x0
 .rela.iplt     0x00000000018191e0        0x0 Main.o
 .rela.text._ZZN15HealthIndicator12HealthSliderC4EvENKUlP6SliderIiEE1_cvPFvS3_EEv.isra.0
                0x00000000018191e0        0x0 Main.o
 .rela.text._ZZN15HealthIndicator12HealthSliderC4EvENKUlP6SliderIiEE0_cvPFvS3_EEv.isra.0
                0x00000000018191e0        0x0 Main.o
 .rela.text._ZZN15HealthIndicator12HealthSliderC4EvENKUlP6SliderIiEE_cvPFN4mstd7wstringES3_EEv.isra.0
                0x00000000018191e0        0x0 Main.o
 .rela.text._ZZN3ESPC4EvENKUlP6ModuleE_cvPFvS1_EEv.isra.0
                0x00000000018191e0        0x0 Main.o
 .rela.text._ZZZN3ESPC4EvENKUlP6ModuleE_clES1_ENKUlPvbE_cvPFiS3_bEEv.isra.0
                0x00000000018191e0        0x0 Main.o
 .rela.text._ZZN8ChestESPC4EvENKUlP6ModuleE_cvPFvS1_EEv.isra.0
                0x00000000018191e0        0x0 Main.o
 .rela.text._ZZZN8ChestESPC4EvENKUlP6ModuleE_clES1_ENKUlPvbE_cvPFiS3_bEEv.isra.0
                0x00000000018191e0        0x0 Main.o
 .rela.text._ZZN6Aimbot11RangeSliderC4EvENKUlP6SliderIiEE1_cvPFvS3_EEv.isra.0
                0x00000000018191e0        0x0 Main.o
 .rela.text._ZZN6Aimbot11RangeSliderC4EvENKUlP6SliderIiEE0_cvPFvS3_EEv.isra.0
                0x00000000018191e0        0x0 Main.o
 .rela.text._ZZN6Aimbot11RangeSliderC4EvENKUlP6SliderIiEE_cvPFN4mstd7wstringES3_EEv.isra.0
                0x00000000018191e0        0x0 Main.o
 .rela.text._ZN6Client10fpsCounterEv
                0x00000000018191e0        0x0 Main.o
 .rela.text._ZN8Scaffold9updatePosEb
                0x00000000018191e0        0x0 Main.o
 .rela.text._ZN6SliderIiEC2Eiiii
                0x00000000018191e0        0x0 Main.o
 .rela.text._ZN10KeyStrokes4drawEv
                0x00000000018191e0        0x0 Main.o
 .rela.text._ZN4XRayC2EPv
                0x00000000018191e0        0x0 Main.o
 .rela.text._ZZN6Client8drawMenuEvENKUlbRyS0_E_clEbS0_S0_
                0x00000000018191e0        0x0 Main.o
 .rela.text._ZN6Client8drawMenuEv
                0x00000000018191e0        0x0 Main.o
 .rela.text._ZN6Client4drawEb
                0x00000000018191e0        0x0 Main.o
 .rela.text.unlikely.__cxa_throw_bad_array_new_length
                0x00000000018191e0        0x0 Main.o
 .rela.text.__gxx_personality_v0
                0x00000000018191e0        0x0 Main.o
 .rela.text._ZN9__gnu_cxx24__concurrence_lock_errorD2Ev
                0x00000000018191e0        0x0 Main.o
 .rela.text._ZN9__gnu_cxx24__concurrence_wait_errorD2Ev
                0x00000000018191e0        0x0 Main.o
 .rela.text._ZN9__gnu_cxx26__concurrence_unlock_errorD2Ev
                0x00000000018191e0        0x0 Main.o
 .rela.text._ZN9__gnu_cxx29__concurrence_broadcast_errorD2Ev
                0x00000000018191e0        0x0 Main.o
 .rela.text._ZN9__gnu_cxx24__concurrence_lock_errorD0Ev
                0x00000000018191e0        0x0 Main.o
 .rela.text._ZN9__gnu_cxx24__concurrence_wait_errorD0Ev
                0x00000000018191e0        0x0 Main.o
 .rela.text._ZN9__gnu_cxx26__concurrence_unlock_errorD0Ev
                0x00000000018191e0        0x0 Main.o
 .rela.text._ZN9__gnu_cxx29__concurrence_broadcast_errorD0Ev
                0x00000000018191e0        0x0 Main.o
 .rela.text.unlikely._ZN9__gnu_cxx30__throw_concurrence_lock_errorEv
                0x00000000018191e0        0x0 Main.o
 .rela.text.unlikely._ZN9__gnu_cxx32__throw_concurrence_unlock_errorEv
                0x00000000018191e0        0x0 Main.o
 .rela.text.unlikely._ZN9__gnu_cxx35__throw_concurrence_broadcast_errorEv
                0x00000000018191e0        0x0 Main.o
 .rela.text.__cxa_guard_acquire
                0x00000000018191e0        0x0 Main.o
 .rela.rodata._ZTIN9__gnu_cxx24__concurrence_lock_errorE
                0x00000000018191e0        0x0 Main.o
 .rela.rodata._ZTIN9__gnu_cxx26__concurrence_unlock_errorE
                0x00000000018191e0        0x0 Main.o
 .rela.rodata._ZTIN9__gnu_cxx29__concurrence_broadcast_errorE
                0x00000000018191e0        0x0 Main.o
 .rela.rodata._ZTIN9__gnu_cxx24__concurrence_wait_errorE
                0x00000000018191e0        0x0 Main.o
 .rela.rodata._ZTVN9__gnu_cxx24__concurrence_lock_errorE
                0x00000000018191e0        0x0 Main.o
 .rela.rodata._ZTVN9__gnu_cxx26__concurrence_unlock_errorE
                0x00000000018191e0        0x0 Main.o
 .rela.rodata._ZTVN9__gnu_cxx29__concurrence_broadcast_errorE
                0x00000000018191e0        0x0 Main.o
 .rela.rodata._ZTVN9__gnu_cxx24__concurrence_wait_errorE
                0x00000000018191e0        0x0 Main.o
 .rela.text._ZN9__gnu_cxx20recursive_init_errorD2Ev
                0x00000000018191e0        0x0 Main.o
 .rela.text._ZN9__gnu_cxx20recursive_init_errorD0Ev
                0x00000000018191e0        0x0 Main.o
 .rela.text._ZN9__gnu_cxx20recursive_init_errorC2Ev
                0x00000000018191e0        0x0 Main.o
 .rela.rodata._ZTIN9__gnu_cxx20recursive_init_errorE
                0x00000000018191e0        0x0 Main.o
 .rela.rodata._ZTVN9__gnu_cxx20recursive_init_errorE
                0x00000000018191e0        0x0 Main.o
 .rela.text._ZN10__cxxabiv120__si_class_type_infoD2Ev
                0x00000000018191e0        0x0 Main.o
 .rela.text._ZN10__cxxabiv120__si_class_type_infoD0Ev
                0x00000000018191e0        0x0 Main.o
 .rela.rodata._ZTIN10__cxxabiv120__si_class_type_infoE
                0x00000000018191e0        0x0 Main.o
 .rela.rodata._ZTVN10__cxxabiv120__si_class_type_infoE
                0x00000000018191e0        0x0 Main.o
 .rela.sdata._ZTISt9type_info
                0x00000000018191e0        0x0 Main.o
 .rela.text._ZNSt20bad_array_new_lengthD2Ev
                0x00000000018191e0        0x0 Main.o
 .rela.text._ZNSt20bad_array_new_lengthD0Ev
                0x00000000018191e0        0x0 Main.o
 .rela.rodata._ZTISt20bad_array_new_length
                0x00000000018191e0        0x0 Main.o
 .rela.rodata._ZTVSt20bad_array_new_length
                0x00000000018191e0        0x0 Main.o
 .rela.text._ZN10__cxxabiv117__class_type_infoD2Ev
                0x00000000018191e0        0x0 Main.o
 .rela.text._ZN10__cxxabiv117__class_type_infoD0Ev
                0x00000000018191e0        0x0 Main.o
 .rela.rodata._ZTIN10__cxxabiv117__class_type_infoE
                0x00000000018191e0        0x0 Main.o
 .rela.rodata._ZTVN10__cxxabiv117__class_type_infoE
                0x00000000018191e0        0x0 Main.o
 .rela.sdata._ZTISt9exception
                0x00000000018191e0        0x0 Main.o
 .rela.sdata._ZTIN10__cxxabiv115__forced_unwindE
                0x00000000018191e0        0x0 Main.o
 .rela.sdata._ZTIN10__cxxabiv119__foreign_exceptionE
                0x00000000018191e0        0x0 Main.o
 .rela.text._ZNSt9bad_allocD2Ev
                0x00000000018191e0        0x0 Main.o
 .rela.text._ZNSt9bad_allocD0Ev
                0x00000000018191e0        0x0 Main.o
 .rela.rodata._ZTISt9bad_alloc
                0x00000000018191e0        0x0 Main.o
 .rela.rodata._ZTVSt9bad_alloc
                0x00000000018191e0        0x0 Main.o
 .rela.text.__gthread_active_p
                0x00000000018191e0        0x0 Main.o
 .rela.text.__gthread_once
                0x00000000018191e0        0x0 Main.o
 .rela.text.__gthread_getspecific
                0x00000000018191e0        0x0 Main.o
 .rela.text.__gthread_setspecific
                0x00000000018191e0        0x0 Main.o
 .rela.text.__gthread_mutex_init_function
                0x00000000018191e0        0x0 Main.o
 .rela.text.__gthread_mutex_lock
                0x00000000018191e0        0x0 Main.o
 .rela.text.__gthread_mutex_unlock
                0x00000000018191e0        0x0 Main.o
 .rela.text.__gthread_recursive_mutex_init_function
                0x00000000018191e0        0x0 Main.o
 .rela.text.__gthread_recursive_mutex_lock
                0x00000000018191e0        0x0 Main.o
 .rela.text.__gthread_recursive_mutex_unlock
                0x00000000018191e0        0x0 Main.o
 .rela.text.__gthread_cond_init_function
                0x00000000018191e0        0x0 Main.o
 .rela.text.__gthread_cond_broadcast
                0x00000000018191e0        0x0 Main.o
 .rela.text.__gthread_cond_wait_recursive
                0x00000000018191e0        0x0 Main.o
 .rela.text._exit
                0x00000000018191e0        0x0 Main.o
 .rela.text._sbrk_r
                0x00000000018191e0        0x0 Main.o
 .rela.text.__malloc_lock
                0x00000000018191e0        0x0 Main.o
 .rela.text.__malloc_unlock
                0x00000000018191e0        0x0 Main.o

.iplt           0x00000000018191e0        0x0
 .iplt          0x00000000018191e0        0x0 Main.o

.comment        0x0000000000000000       0x23
 .comment       0x0000000000000000       0x23 Main.o
                                         0x24 (size before relaxing)
 .comment       0x0000000000000023       0x24 c:/devkitpro/devkitppc/bin/../lib/gcc/powerpc-eabi/12.1.0/../../../../powerpc-eabi/lib\libstdc++.a(del_ops.o)
 .comment       0x0000000000000023       0x24 c:/devkitpro/devkitppc/bin/../lib/gcc/powerpc-eabi/12.1.0/../../../../powerpc-eabi/lib\libstdc++.a(eh_aux_runtime.o)
 .comment       0x0000000000000023       0x24 c:/devkitpro/devkitppc/bin/../lib/gcc/powerpc-eabi/12.1.0/../../../../powerpc-eabi/lib\libstdc++.a(eh_personality.o)
 .comment       0x0000000000000023       0x24 c:/devkitpro/devkitppc/bin/../lib/gcc/powerpc-eabi/12.1.0/../../../../powerpc-eabi/lib\libstdc++.a(eh_terminate.o)
 .comment       0x0000000000000023       0x24 c:/devkitpro/devkitppc/bin/../lib/gcc/powerpc-eabi/12.1.0/../../../../powerpc-eabi/lib\libstdc++.a(eh_throw.o)
 .comment       0x0000000000000023       0x24 c:/devkitpro/devkitppc/bin/../lib/gcc/powerpc-eabi/12.1.0/../../../../powerpc-eabi/lib\libstdc++.a(eh_unex_handler.o)
 .comment       0x0000000000000023       0x24 c:/devkitpro/devkitppc/bin/../lib/gcc/powerpc-eabi/12.1.0/../../../../powerpc-eabi/lib\libstdc++.a(guard.o)
 .comment       0x0000000000000023       0x24 c:/devkitpro/devkitppc/bin/../lib/gcc/powerpc-eabi/12.1.0/../../../../powerpc-eabi/lib\libstdc++.a(guard_error.o)
 .comment       0x0000000000000023       0x24 c:/devkitpro/devkitppc/bin/../lib/gcc/powerpc-eabi/12.1.0/../../../../powerpc-eabi/lib\libstdc++.a(si_class_type_info.o)
 .comment       0x0000000000000023       0x24 c:/devkitpro/devkitppc/bin/../lib/gcc/powerpc-eabi/12.1.0/../../../../powerpc-eabi/lib\libstdc++.a(tinfo.o)
 .comment       0x0000000000000023       0x24 c:/devkitpro/devkitppc/bin/../lib/gcc/powerpc-eabi/12.1.0/../../../../powerpc-eabi/lib\libstdc++.a(bad_array_new.o)
 .comment       0x0000000000000023       0x24 c:/devkitpro/devkitppc/bin/../lib/gcc/powerpc-eabi/12.1.0/../../../../powerpc-eabi/lib\libstdc++.a(class_type_info.o)
 .comment       0x0000000000000023       0x24 c:/devkitpro/devkitppc/bin/../lib/gcc/powerpc-eabi/12.1.0/../../../../powerpc-eabi/lib\libstdc++.a(eh_alloc.o)
 .comment       0x0000000000000023       0x24 c:/devkitpro/devkitppc/bin/../lib/gcc/powerpc-eabi/12.1.0/../../../../powerpc-eabi/lib\libstdc++.a(eh_call.o)
 .comment       0x0000000000000023       0x24 c:/devkitpro/devkitppc/bin/../lib/gcc/powerpc-eabi/12.1.0/../../../../powerpc-eabi/lib\libstdc++.a(eh_catch.o)
 .comment       0x0000000000000023       0x24 c:/devkitpro/devkitppc/bin/../lib/gcc/powerpc-eabi/12.1.0/../../../../powerpc-eabi/lib\libstdc++.a(eh_exception.o)
 .comment       0x0000000000000023       0x24 c:/devkitpro/devkitppc/bin/../lib/gcc/powerpc-eabi/12.1.0/../../../../powerpc-eabi/lib\libstdc++.a(eh_globals.o)
 .comment       0x0000000000000023       0x24 c:/devkitpro/devkitppc/bin/../lib/gcc/powerpc-eabi/12.1.0/../../../../powerpc-eabi/lib\libstdc++.a(eh_term_handler.o)
 .comment       0x0000000000000023       0x24 c:/devkitpro/devkitppc/bin/../lib/gcc/powerpc-eabi/12.1.0/../../../../powerpc-eabi/lib\libstdc++.a(bad_alloc.o)
 .comment       0x0000000000000023       0x24 c:/devkitpro/devkitppc/bin/../lib/gcc/powerpc-eabi/12.1.0/../../../../powerpc-eabi/lib\libm.a(lib_a-w_atan2.o)
 .comment       0x0000000000000023       0x24 c:/devkitpro/devkitppc/bin/../lib/gcc/powerpc-eabi/12.1.0/../../../../powerpc-eabi/lib\libm.a(lib_a-wf_sincos.o)
 .comment       0x0000000000000023       0x24 c:/devkitpro/devkitppc/bin/../lib/gcc/powerpc-eabi/12.1.0/../../../../powerpc-eabi/lib\libm.a(lib_a-wf_sqrt.o)
 .comment       0x0000000000000023       0x24 c:/devkitpro/devkitppc/bin/../lib/gcc/powerpc-eabi/12.1.0/../../../../powerpc-eabi/lib\libm.a(lib_a-w_sqrt.o)
 .comment       0x0000000000000023       0x24 c:/devkitpro/devkitppc/bin/../lib/gcc/powerpc-eabi/12.1.0/../../../../powerpc-eabi/lib\libm.a(lib_a-e_atan2.o)
 .comment       0x0000000000000023       0x24 c:/devkitpro/devkitppc/bin/../lib/gcc/powerpc-eabi/12.1.0/../../../../powerpc-eabi/lib\libm.a(lib_a-ef_sqrt.o)
 .comment       0x0000000000000023       0x24 c:/devkitpro/devkitppc/bin/../lib/gcc/powerpc-eabi/12.1.0/../../../../powerpc-eabi/lib\libm.a(lib_a-e_sqrt.o)
 .comment       0x0000000000000023       0x24 c:/devkitpro/devkitppc/bin/../lib/gcc/powerpc-eabi/12.1.0/../../../../powerpc-eabi/lib\libm.a(lib_a-s_atan.o)
 .comment       0x0000000000000023       0x24 c:/devkitpro/devkitppc/bin/../lib/gcc/powerpc-eabi/12.1.0/../../../../powerpc-eabi/lib\libm.a(lib_a-s_fabs.o)
 .comment       0x0000000000000023       0x24 c:/devkitpro/devkitppc/bin/../lib/gcc/powerpc-eabi/12.1.0/../../../../powerpc-eabi/lib\libm.a(lib_a-sf_cos.o)
 .comment       0x0000000000000023       0x24 c:/devkitpro/devkitppc/bin/../lib/gcc/powerpc-eabi/12.1.0/../../../../powerpc-eabi/lib\libm.a(lib_a-sf_sin.o)
 .comment       0x0000000000000023       0x24 c:/devkitpro/devkitppc/bin/../lib/gcc/powerpc-eabi/12.1.0/../../../../powerpc-eabi/lib\libm.a(lib_a-ef_rem_pio2.o)
 .comment       0x0000000000000023       0x24 c:/devkitpro/devkitppc/bin/../lib/gcc/powerpc-eabi/12.1.0/../../../../powerpc-eabi/lib\libm.a(lib_a-kf_cos.o)
 .comment       0x0000000000000023       0x24 c:/devkitpro/devkitppc/bin/../lib/gcc/powerpc-eabi/12.1.0/../../../../powerpc-eabi/lib\libm.a(lib_a-kf_rem_pio2.o)
 .comment       0x0000000000000023       0x24 c:/devkitpro/devkitppc/bin/../lib/gcc/powerpc-eabi/12.1.0/../../../../powerpc-eabi/lib\libm.a(lib_a-kf_sin.o)
 .comment       0x0000000000000023       0x24 c:/devkitpro/devkitppc/bin/../lib/gcc/powerpc-eabi/12.1.0/../../../../powerpc-eabi/lib\libm.a(lib_a-sf_fabs.o)
 .comment       0x0000000000000023       0x24 c:/devkitpro/devkitppc/bin/../lib/gcc/powerpc-eabi/12.1.0/../../../../powerpc-eabi/lib\libm.a(lib_a-sf_floor.o)
 .comment       0x0000000000000023       0x24 c:/devkitpro/devkitppc/bin/../lib/gcc/powerpc-eabi/12.1.0/../../../../powerpc-eabi/lib\libm.a(lib_a-sf_scalbn.o)
 .comment       0x0000000000000023       0x24 c:/devkitpro/devkitppc/bin/../lib/gcc/powerpc-eabi/12.1.0\libgcc.a(gthr-dkp.o)
 .comment       0x0000000000000023       0x24 c:/devkitpro/devkitppc/bin/../lib/gcc/powerpc-eabi/12.1.0\libgcc.a(unwind-dw2.o)
 .comment       0x0000000000000023       0x24 c:/devkitpro/devkitppc/bin/../lib/gcc/powerpc-eabi/12.1.0\libgcc.a(unwind-dw2-fde.o)
 .comment       0x0000000000000023       0x24 c:/devkitpro/devkitppc/bin/../lib/gcc/powerpc-eabi/12.1.0/../../../../powerpc-eabi/lib\libsysbase.a(abort.o)
 .comment       0x0000000000000023       0x24 c:/devkitpro/devkitppc/bin/../lib/gcc/powerpc-eabi/12.1.0/../../../../powerpc-eabi/lib\libsysbase.a(_exit.o)
 .comment       0x0000000000000023       0x24 c:/devkitpro/devkitppc/bin/../lib/gcc/powerpc-eabi/12.1.0/../../../../powerpc-eabi/lib\libc.a(lib_a-errno.o)
 .comment       0x0000000000000023       0x24 c:/devkitpro/devkitppc/bin/../lib/gcc/powerpc-eabi/12.1.0/../../../../powerpc-eabi/lib\libc.a(lib_a-impure.o)
 .comment       0x0000000000000023       0x24 c:/devkitpro/devkitppc/bin/../lib/gcc/powerpc-eabi/12.1.0/../../../../powerpc-eabi/lib\libc.a(lib_a-malloc.o)
 .comment       0x0000000000000023       0x24 c:/devkitpro/devkitppc/bin/../lib/gcc/powerpc-eabi/12.1.0/../../../../powerpc-eabi/lib\libc.a(lib_a-mallocr.o)
 .comment       0x0000000000000023       0x24 c:/devkitpro/devkitppc/bin/../lib/gcc/powerpc-eabi/12.1.0/../../../../powerpc-eabi/lib\libc.a(lib_a-memcpy.o)
 .comment       0x0000000000000023       0x24 c:/devkitpro/devkitppc/bin/../lib/gcc/powerpc-eabi/12.1.0/../../../../powerpc-eabi/lib\libc.a(lib_a-memset.o)
 .comment       0x0000000000000023       0x24 c:/devkitpro/devkitppc/bin/../lib/gcc/powerpc-eabi/12.1.0/../../../../powerpc-eabi/lib\libc.a(lib_a-strcmp.o)
 .comment       0x0000000000000023       0x24 c:/devkitpro/devkitppc/bin/../lib/gcc/powerpc-eabi/12.1.0/../../../../powerpc-eabi/lib\libc.a(lib_a-strlen.o)
 .comment       0x0000000000000023       0x24 c:/devkitpro/devkitppc/bin/../lib/gcc/powerpc-eabi/12.1.0/../../../../powerpc-eabi/lib\libc.a(lib_a-syswrite.o)
 .comment       0x0000000000000023       0x24 c:/devkitpro/devkitppc/bin/../lib/gcc/powerpc-eabi/12.1.0/../../../../powerpc-eabi/lib\libc.a(lib_a-freer.o)
 .comment       0x0000000000000023       0x24 c:/devkitpro/devkitppc/bin/../lib/gcc/powerpc-eabi/12.1.0/../../../../powerpc-eabi/lib\libsysbase.a(sbrk.o)
 .comment       0x0000000000000023       0x24 c:/devkitpro/devkitppc/bin/../lib/gcc/powerpc-eabi/12.1.0/../../../../powerpc-eabi/lib\libsysbase.a(write.o)
 .comment       0x0000000000000023       0x24 c:/devkitpro/devkitppc/bin/../lib/gcc/powerpc-eabi/12.1.0/../../../../powerpc-eabi/lib\libsysbase.a(handle_manager.o)
 .comment       0x0000000000000023       0x24 c:/devkitpro/devkitppc/bin/../lib/gcc/powerpc-eabi/12.1.0/../../../../powerpc-eabi/lib\libsysbase.a(syscall_support.o)
 .comment       0x0000000000000023       0x24 c:/devkitpro/devkitppc/bin/../lib/gcc/powerpc-eabi/12.1.0/../../../../powerpc-eabi/lib\libsysbase.a(iosupport.o)

.gnu.attributes
                0x0000000000000000       0x12
 .gnu.attributes
                0x0000000000000000       0x12 Main.o
 .gnu.attributes
                0x0000000000000012       0x10 c:/devkitpro/devkitppc/bin/../lib/gcc/powerpc-eabi/12.1.0/../../../../powerpc-eabi/lib\libm.a(lib_a-w_atan2.o)
 .gnu.attributes
                0x0000000000000022       0x10 c:/devkitpro/devkitppc/bin/../lib/gcc/powerpc-eabi/12.1.0/../../../../powerpc-eabi/lib\libm.a(lib_a-wf_sincos.o)
 .gnu.attributes
                0x0000000000000032       0x10 c:/devkitpro/devkitppc/bin/../lib/gcc/powerpc-eabi/12.1.0/../../../../powerpc-eabi/lib\libm.a(lib_a-wf_sqrt.o)
 .gnu.attributes
                0x0000000000000042       0x10 c:/devkitpro/devkitppc/bin/../lib/gcc/powerpc-eabi/12.1.0/../../../../powerpc-eabi/lib\libm.a(lib_a-w_sqrt.o)
 .gnu.attributes
                0x0000000000000052       0x10 c:/devkitpro/devkitppc/bin/../lib/gcc/powerpc-eabi/12.1.0/../../../../powerpc-eabi/lib\libm.a(lib_a-e_atan2.o)
 .gnu.attributes
                0x0000000000000062       0x10 c:/devkitpro/devkitppc/bin/../lib/gcc/powerpc-eabi/12.1.0/../../../../powerpc-eabi/lib\libm.a(lib_a-ef_sqrt.o)
 .gnu.attributes
                0x0000000000000072       0x10 c:/devkitpro/devkitppc/bin/../lib/gcc/powerpc-eabi/12.1.0/../../../../powerpc-eabi/lib\libm.a(lib_a-e_sqrt.o)
 .gnu.attributes
                0x0000000000000082       0x10 c:/devkitpro/devkitppc/bin/../lib/gcc/powerpc-eabi/12.1.0/../../../../powerpc-eabi/lib\libm.a(lib_a-s_atan.o)
 .gnu.attributes
                0x0000000000000092       0x10 c:/devkitpro/devkitppc/bin/../lib/gcc/powerpc-eabi/12.1.0/../../../../powerpc-eabi/lib\libm.a(lib_a-s_fabs.o)
 .gnu.attributes
                0x00000000000000a2       0x10 c:/devkitpro/devkitppc/bin/../lib/gcc/powerpc-eabi/12.1.0/../../../../powerpc-eabi/lib\libm.a(lib_a-sf_cos.o)
 .gnu.attributes
                0x00000000000000b2       0x10 c:/devkitpro/devkitppc/bin/../lib/gcc/powerpc-eabi/12.1.0/../../../../powerpc-eabi/lib\libm.a(lib_a-sf_sin.o)
 .gnu.attributes
                0x00000000000000c2       0x10 c:/devkitpro/devkitppc/bin/../lib/gcc/powerpc-eabi/12.1.0/../../../../powerpc-eabi/lib\libm.a(lib_a-ef_rem_pio2.o)
 .gnu.attributes
                0x00000000000000d2       0x10 c:/devkitpro/devkitppc/bin/../lib/gcc/powerpc-eabi/12.1.0/../../../../powerpc-eabi/lib\libm.a(lib_a-kf_cos.o)
 .gnu.attributes
                0x00000000000000e2       0x10 c:/devkitpro/devkitppc/bin/../lib/gcc/powerpc-eabi/12.1.0/../../../../powerpc-eabi/lib\libm.a(lib_a-kf_rem_pio2.o)
 .gnu.attributes
                0x00000000000000f2       0x10 c:/devkitpro/devkitppc/bin/../lib/gcc/powerpc-eabi/12.1.0/../../../../powerpc-eabi/lib\libm.a(lib_a-kf_sin.o)
 .gnu.attributes
                0x0000000000000102       0x10 c:/devkitpro/devkitppc/bin/../lib/gcc/powerpc-eabi/12.1.0/../../../../powerpc-eabi/lib\libm.a(lib_a-sf_fabs.o)
 .gnu.attributes
                0x0000000000000112       0x10 c:/devkitpro/devkitppc/bin/../lib/gcc/powerpc-eabi/12.1.0/../../../../powerpc-eabi/lib\libm.a(lib_a-sf_floor.o)
 .gnu.attributes
                0x0000000000000122       0x10 c:/devkitpro/devkitppc/bin/../lib/gcc/powerpc-eabi/12.1.0/../../../../powerpc-eabi/lib\libm.a(lib_a-sf_scalbn.o)
